
/git/github.com/LiGoldragon/qmkBinaries/minidox/left/maple_computing_minidox_rev1_LiGoldragon.hex:     file format ihex


Disassembly of section .sec1:

00000000 <.sec1>:
       0:	0c 94 be 01 	jmp	0x37c	;  0x37c
       4:	0c 94 e6 1c 	jmp	0x39cc	;  0x39cc
       8:	0c 94 db 01 	jmp	0x3b6	;  0x3b6
       c:	0c 94 db 01 	jmp	0x3b6	;  0x3b6
      10:	0c 94 db 01 	jmp	0x3b6	;  0x3b6
      14:	0c 94 db 01 	jmp	0x3b6	;  0x3b6
      18:	0c 94 db 01 	jmp	0x3b6	;  0x3b6
      1c:	0c 94 db 01 	jmp	0x3b6	;  0x3b6
      20:	0c 94 db 01 	jmp	0x3b6	;  0x3b6
      24:	0c 94 db 01 	jmp	0x3b6	;  0x3b6
      28:	0c 94 0b 22 	jmp	0x4416	;  0x4416
      2c:	0c 94 df 22 	jmp	0x45be	;  0x45be
      30:	0c 94 65 1b 	jmp	0x36ca	;  0x36ca
      34:	0c 94 db 01 	jmp	0x3b6	;  0x3b6
      38:	0c 94 db 01 	jmp	0x3b6	;  0x3b6
      3c:	0c 94 db 01 	jmp	0x3b6	;  0x3b6
      40:	0c 94 db 01 	jmp	0x3b6	;  0x3b6
      44:	0c 94 db 01 	jmp	0x3b6	;  0x3b6
      48:	0c 94 db 01 	jmp	0x3b6	;  0x3b6
      4c:	0c 94 db 01 	jmp	0x3b6	;  0x3b6
      50:	0c 94 db 01 	jmp	0x3b6	;  0x3b6
      54:	0c 94 08 1c 	jmp	0x3810	;  0x3810
      58:	0c 94 db 01 	jmp	0x3b6	;  0x3b6
      5c:	0c 94 db 01 	jmp	0x3b6	;  0x3b6
      60:	0c 94 db 01 	jmp	0x3b6	;  0x3b6
      64:	0c 94 db 01 	jmp	0x3b6	;  0x3b6
      68:	0c 94 db 01 	jmp	0x3b6	;  0x3b6
      6c:	0c 94 db 01 	jmp	0x3b6	;  0x3b6
      70:	0c 94 db 01 	jmp	0x3b6	;  0x3b6
      74:	0c 94 db 01 	jmp	0x3b6	;  0x3b6
      78:	0c 94 db 01 	jmp	0x3b6	;  0x3b6
      7c:	0c 94 db 01 	jmp	0x3b6	;  0x3b6
      80:	0c 94 db 01 	jmp	0x3b6	;  0x3b6
      84:	0c 94 db 01 	jmp	0x3b6	;  0x3b6
      88:	0c 94 db 01 	jmp	0x3b6	;  0x3b6
      8c:	0c 94 db 01 	jmp	0x3b6	;  0x3b6
      90:	0c 94 db 01 	jmp	0x3b6	;  0x3b6
      94:	0c 94 db 01 	jmp	0x3b6	;  0x3b6
      98:	0c 94 db 01 	jmp	0x3b6	;  0x3b6
      9c:	0c 94 db 01 	jmp	0x3b6	;  0x3b6
      a0:	0c 94 db 01 	jmp	0x3b6	;  0x3b6
      a4:	0c 94 db 01 	jmp	0x3b6	;  0x3b6
      a8:	0c 94 db 01 	jmp	0x3b6	;  0x3b6
      ac:	14 00       	.word	0x0014	; ????
      ae:	1a 00       	.word	0x001a	; ????
      b0:	08 00       	.word	0x0008	; ????
      b2:	15 00       	.word	0x0015	; ????
      b4:	17 00       	.word	0x0017	; ????
      b6:	1d 00       	.word	0x001d	; ????
      b8:	16 21       	and	r17, r6
      ba:	07 24       	eor	r0, r7
      bc:	09 00       	.word	0x0009	; ????
      be:	0a 00       	.word	0x000a	; ????
      c0:	04 22       	and	r0, r20
      c2:	1b 00       	.word	0x001b	; ????
      c4:	06 00       	.word	0x0006	; ????
      c6:	19 00       	.word	0x0019	; ????
      c8:	05 28       	or	r0, r5
      ca:	00 00       	nop
      cc:	00 00       	nop
      ce:	2a 42       	sbci	r18, 0x2A	; 42
      d0:	43 7e       	andi	r20, 0xE3	; 227
      d2:	2c 43       	sbci	r18, 0x3C	; 60
      d4:	13 00       	.word	0x0013	; ????
      d6:	12 00       	.word	0x0012	; ????
      d8:	0c 00       	.word	0x000c	; ????
      da:	18 00       	.word	0x0018	; ????
      dc:	1c 00       	.word	0x001c	; ????
      de:	38 00       	.word	0x0038	; ????
      e0:	0f 31       	cpi	r16, 0x1F	; 31
      e2:	0e 34       	cpi	r16, 0x4E	; 78
      e4:	0d 00       	.word	0x000d	; ????
      e6:	0b 00       	.word	0x000b	; ????
      e8:	33 32       	cpi	r19, 0x23	; 35
      ea:	37 00       	.word	0x0037	; ????
      ec:	36 00       	.word	0x0036	; ????
      ee:	10 00       	.word	0x0010	; ????
      f0:	11 38       	cpi	r17, 0x81	; 129
      f2:	00 00       	nop
      f4:	00 00       	nop
      f6:	29 43       	sbci	r18, 0x39	; 57
      f8:	2c 04       	cpc	r2, r12
      fa:	28 43       	sbci	r18, 0x38	; 56
      fc:	14 00       	.word	0x0014	; ????
      fe:	1a 00       	.word	0x001a	; ????
     100:	09 00       	.word	0x0009	; ????
     102:	13 00       	.word	0x0013	; ????
     104:	0a 00       	.word	0x000a	; ????
     106:	1d 00       	.word	0x001d	; ????
     108:	15 21       	and	r17, r5
     10a:	16 24       	eor	r1, r6
     10c:	17 00       	.word	0x0017	; ????
     10e:	07 00       	.word	0x0007	; ????
     110:	04 22       	and	r0, r20
     112:	1b 00       	.word	0x001b	; ????
     114:	06 00       	.word	0x0006	; ????
     116:	19 00       	.word	0x0019	; ????
     118:	05 28       	or	r0, r5
     11a:	00 00       	nop
     11c:	00 00       	nop
     11e:	2a 42       	sbci	r18, 0x2A	; 42
     120:	58 7c       	andi	r21, 0xC8	; 200
     122:	2c 00       	.word	0x002c	; ????
     124:	33 00       	.word	0x0033	; ????
     126:	1c 00       	.word	0x001c	; ????
     128:	18 00       	.word	0x0018	; ????
     12a:	0f 00       	.word	0x000f	; ????
     12c:	0d 00       	.word	0x000d	; ????
     12e:	38 00       	.word	0x0038	; ????
     130:	0c 31       	cpi	r16, 0x1C	; 28
     132:	08 34       	cpi	r16, 0x48	; 72
     134:	11 00       	.word	0x0011	; ????
     136:	0b 00       	.word	0x000b	; ????
     138:	12 32       	cpi	r17, 0x22	; 34
     13a:	37 00       	.word	0x0037	; ????
     13c:	36 00       	.word	0x0036	; ????
     13e:	10 00       	.word	0x0010	; ????
     140:	0e 38       	cpi	r16, 0x8E	; 142
     142:	00 00       	nop
     144:	00 00       	nop
     146:	29 43       	sbci	r18, 0x39	; 57
     148:	2c 04       	cpc	r2, r12
     14a:	28 00       	.word	0x0028	; ????
     14c:	1e 02       	muls	r17, r30
     14e:	1f 02       	muls	r17, r31
     150:	20 02       	muls	r18, r16
     152:	21 02       	muls	r18, r17
     154:	22 02       	muls	r18, r18
     156:	39 00       	.word	0x0039	; ????
     158:	01 00       	.word	0x0001	; ????
     15a:	52 00       	.word	0x0052	; ????
     15c:	01 00       	.word	0x0001	; ????
     15e:	4a 00       	.word	0x004a	; ????
     160:	35 02       	muls	r19, r21
     162:	50 00       	.word	0x0050	; ????
     164:	51 00       	.word	0x0051	; ????
     166:	4f 00       	.word	0x004f	; ????
     168:	4d 00       	.word	0x004d	; ????
     16a:	00 00       	nop
     16c:	00 00       	nop
     16e:	01 00       	.word	0x0001	; ????
     170:	4c 00       	.word	0x004c	; ????
     172:	29 00       	.word	0x0029	; ????
     174:	27 02       	muls	r18, r23
     176:	26 02       	muls	r18, r22
     178:	25 02       	muls	r18, r21
     17a:	24 02       	muls	r18, r20
     17c:	23 02       	muls	r18, r19
     17e:	2d 02       	muls	r18, r29
     180:	30 02       	muls	r19, r16
     182:	2f 02       	muls	r18, r31
     184:	2e 02       	muls	r18, r30
     186:	4b 00       	.word	0x004b	; ????
     188:	38 00       	.word	0x0038	; ????
     18a:	a9 00       	.word	0x00a9	; ????
     18c:	aa 00       	.word	0x00aa	; ????
     18e:	a8 00       	.word	0x00a8	; ????
     190:	4e 00       	.word	0x004e	; ????
     192:	00 00       	nop
     194:	00 00       	nop
     196:	01 00       	.word	0x0001	; ????
     198:	31 02       	muls	r19, r17
     19a:	2b 00       	.word	0x002b	; ????
     19c:	35 00       	.word	0x0035	; ????
     19e:	01 00       	.word	0x0001	; ????
     1a0:	01 00       	.word	0x0001	; ????
     1a2:	4e 00       	.word	0x004e	; ????
     1a4:	4a 00       	.word	0x004a	; ????
     1a6:	39 00       	.word	0x0039	; ????
     1a8:	25 00       	.word	0x0025	; ????
     1aa:	24 00       	.word	0x0024	; ????
     1ac:	23 00       	.word	0x0023	; ????
     1ae:	2d 00       	.word	0x002d	; ????
     1b0:	26 22       	and	r2, r22
     1b2:	50 00       	.word	0x0050	; ????
     1b4:	51 00       	.word	0x0051	; ????
     1b6:	2f 00       	.word	0x002f	; ????
     1b8:	27 28       	or	r2, r7
     1ba:	00 00       	nop
     1bc:	00 00       	nop
     1be:	01 00       	.word	0x0001	; ????
     1c0:	4c 00       	.word	0x004c	; ????
     1c2:	2b 00       	.word	0x002b	; ????
     1c4:	31 00       	.word	0x0031	; ????
     1c6:	01 00       	.word	0x0001	; ????
     1c8:	01 00       	.word	0x0001	; ????
     1ca:	4b 00       	.word	0x004b	; ????
     1cc:	4d 00       	.word	0x004d	; ????
     1ce:	34 00       	.word	0x0034	; ????
     1d0:	20 00       	.word	0x0020	; ????
     1d2:	1f 00       	.word	0x001f	; ????
     1d4:	1e 00       	.word	0x001e	; ????
     1d6:	2e 00       	.word	0x002e	; ????
     1d8:	21 32       	cpi	r18, 0x21	; 33
     1da:	4f 00       	.word	0x004f	; ????
     1dc:	52 00       	.word	0x0052	; ????
     1de:	30 00       	.word	0x0030	; ????
     1e0:	22 38       	cpi	r18, 0x82	; 130
     1e2:	00 00       	nop
     1e4:	00 00       	nop
     1e6:	01 00       	.word	0x0001	; ????
     1e8:	01 00       	.word	0x0001	; ????
     1ea:	28 00       	.word	0x0028	; ????
     1ec:	3a 00       	.word	0x003a	; ????
     1ee:	3b 00       	.word	0x003b	; ????
     1f0:	3c 00       	.word	0x003c	; ????
     1f2:	3d 00       	.word	0x003d	; ????
     1f4:	3e 00       	.word	0x003e	; ????
     1f6:	44 00       	.word	0x0044	; ????
     1f8:	00 7c       	andi	r16, 0xC0	; 192
     1fa:	01 00       	.word	0x0001	; ????
     1fc:	01 00       	.word	0x0001	; ????
     1fe:	01 00       	.word	0x0001	; ????
     200:	01 00       	.word	0x0001	; ????
     202:	40 7e       	andi	r20, 0xE0	; 224
     204:	41 7e       	andi	r20, 0xE1	; 225
     206:	01 00       	.word	0x0001	; ????
     208:	01 00       	.word	0x0001	; ????
     20a:	00 00       	nop
     20c:	00 00       	nop
     20e:	01 00       	.word	0x0001	; ????
     210:	01 00       	.word	0x0001	; ????
     212:	01 00       	.word	0x0001	; ????
     214:	43 00       	.word	0x0043	; ????
     216:	42 00       	.word	0x0042	; ????
     218:	41 00       	.word	0x0041	; ????
     21a:	40 00       	.word	0x0040	; ????
     21c:	3f 00       	.word	0x003f	; ????
     21e:	45 00       	.word	0x0045	; ????
     220:	48 00       	.word	0x0048	; ????
     222:	47 00       	.word	0x0047	; ????
     224:	46 00       	.word	0x0046	; ????
     226:	01 00       	.word	0x0001	; ????
     228:	01 00       	.word	0x0001	; ????
     22a:	01 00       	.word	0x0001	; ????
     22c:	01 00       	.word	0x0001	; ????
     22e:	01 00       	.word	0x0001	; ????
     230:	00 7c       	andi	r16, 0xC0	; 192
     232:	00 00       	nop
     234:	00 00       	nop
     236:	01 00       	.word	0x0001	; ????
     238:	01 00       	.word	0x0001	; ????
     23a:	01 00       	.word	0x0001	; ????
     23c:	10 03       	mulsu	r17, r16
     23e:	4d 00       	.word	0x004d	; ????
     240:	69 00       	.word	0x0069	; ????
     242:	6e 00       	.word	0x006e	; ????
     244:	69 00       	.word	0x0069	; ????
     246:	44 00       	.word	0x0044	; ????
     248:	6f 00       	.word	0x006f	; ????
     24a:	78 00       	.word	0x0078	; ????
     24c:	00 00       	nop
     24e:	1c 03       	fmul	r17, r20
     250:	54 00       	.word	0x0054	; ????
     252:	68 00       	.word	0x0068	; ????
     254:	61 00       	.word	0x0061	; ????
     256:	74 00       	.word	0x0074	; ????
     258:	2d 00       	.word	0x002d	; ????
     25a:	43 00       	.word	0x0043	; ????
     25c:	61 00       	.word	0x0061	; ????
     25e:	6e 00       	.word	0x006e	; ????
     260:	61 00       	.word	0x0061	; ????
     262:	64 00       	.word	0x0064	; ????
     264:	69 00       	.word	0x0069	; ????
     266:	61 00       	.word	0x0061	; ????
     268:	6e 00       	.word	0x006e	; ????
     26a:	00 00       	nop
     26c:	04 03       	mulsu	r16, r20
     26e:	09 04       	cpc	r0, r9
     270:	09 02       	muls	r16, r25
     272:	3b 00       	.word	0x003b	; ????
     274:	02 01       	movw	r0, r4
     276:	00 a0       	ldd	r0, Z+32	; 0x20
     278:	fa 09       	sbc	r31, r10
     27a:	04 00       	.word	0x0004	; ????
     27c:	00 01       	movw	r0, r0
     27e:	03 01       	movw	r0, r6
     280:	01 00       	.word	0x0001	; ????
     282:	09 21       	and	r16, r9
     284:	11 01       	movw	r2, r2
     286:	00 01       	movw	r0, r0
     288:	22 44       	sbci	r18, 0x42	; 66
     28a:	00 07       	cpc	r16, r16
     28c:	05 81       	ldd	r16, Z+5	; 0x05
     28e:	03 08       	sbc	r0, r3
     290:	00 01       	movw	r0, r0
     292:	09 04       	cpc	r0, r9
     294:	01 00       	.word	0x0001	; ????
     296:	01 03       	mulsu	r16, r17
     298:	00 00       	nop
     29a:	00 09       	sbc	r16, r0
     29c:	21 11       	cpse	r18, r1
     29e:	01 00       	.word	0x0001	; ????
     2a0:	01 22       	and	r0, r17
     2a2:	7b 00       	.word	0x007b	; ????
     2a4:	07 05       	cpc	r16, r7
     2a6:	82 03       	fmuls	r16, r18
     2a8:	20 00       	.word	0x0020	; ????
     2aa:	01 12       	cpse	r0, r17
     2ac:	01 00       	.word	0x0001	; ????
     2ae:	02 00       	.word	0x0002	; ????
     2b0:	00 00       	nop
     2b2:	08 ed       	ldi	r16, 0xD8	; 216
     2b4:	fe 60       	ori	r31, 0x0E	; 14
     2b6:	30 01       	movw	r6, r0
     2b8:	00 01       	movw	r0, r0
     2ba:	02 00       	.word	0x0002	; ????
     2bc:	01 05       	cpc	r16, r1
     2be:	01 09       	sbc	r16, r1
     2c0:	02 a1       	ldd	r16, Z+34	; 0x22
     2c2:	01 85       	ldd	r16, Z+9	; 0x09
     2c4:	02 09       	sbc	r16, r2
     2c6:	01 a1       	ldd	r16, Z+33	; 0x21
     2c8:	00 05       	cpc	r16, r0
     2ca:	09 19       	sub	r16, r9
     2cc:	01 29       	or	r16, r1
     2ce:	08 15       	cp	r16, r8
     2d0:	00 25       	eor	r16, r0
     2d2:	01 95       	neg	r16
     2d4:	08 75       	andi	r16, 0x58	; 88
     2d6:	01 81       	ldd	r16, Z+1	; 0x01
     2d8:	02 05       	cpc	r16, r2
     2da:	01 09       	sbc	r16, r1
     2dc:	30 09       	sbc	r19, r0
     2de:	31 15       	cp	r19, r1
     2e0:	81 25       	eor	r24, r1
     2e2:	7f 95 02 75 	call	0x5eea04	;  0x5eea04
     2e6:	08 81       	ld	r16, Y
     2e8:	06 09       	sbc	r16, r6
     2ea:	38 15       	cp	r19, r8
     2ec:	81 25       	eor	r24, r1
     2ee:	7f 95 01 75 	call	0x5eea02	;  0x5eea02
     2f2:	08 81       	ld	r16, Y
     2f4:	06 05       	cpc	r16, r6
     2f6:	0c 0a       	sbc	r0, r28
     2f8:	38 02       	muls	r19, r24
     2fa:	15 81       	ldd	r17, Z+5	; 0x05
     2fc:	25 7f       	andi	r18, 0xF5	; 245
     2fe:	95 01       	movw	r18, r10
     300:	75 08       	sbc	r7, r5
     302:	81 06       	cpc	r8, r17
     304:	c0 c0       	rjmp	.+384    	;  0x486
     306:	05 01       	movw	r0, r10
     308:	09 80       	ldd	r0, Y+1	; 0x01
     30a:	a1 01       	movw	r20, r2
     30c:	85 03       	fmuls	r16, r21
     30e:	19 01       	movw	r2, r18
     310:	2a b7       	in	r18, 0x3a	; 58
     312:	00 15       	cp	r16, r0
     314:	01 26       	eor	r0, r17
     316:	b7 00       	.word	0x00b7	; ????
     318:	95 01       	movw	r18, r10
     31a:	75 10       	cpse	r7, r5
     31c:	81 00       	.word	0x0081	; ????
     31e:	c0 05       	cpc	r28, r0
     320:	0c 09       	sbc	r16, r12
     322:	01 a1       	ldd	r16, Z+33	; 0x21
     324:	01 85       	ldd	r16, Z+9	; 0x09
     326:	04 19       	sub	r16, r4
     328:	01 2a       	or	r0, r17
     32a:	a0 02       	muls	r26, r16
     32c:	15 01       	movw	r2, r10
     32e:	26 a0       	ldd	r2, Z+38	; 0x26
     330:	02 95       	swap	r16
     332:	01 75       	andi	r16, 0x51	; 81
     334:	10 81       	ld	r17, Z
     336:	00 c0       	rjmp	.+0      	;  0x338
     338:	05 01       	movw	r0, r10
     33a:	09 06       	cpc	r0, r25
     33c:	a1 01       	movw	r20, r2
     33e:	05 07       	cpc	r16, r21
     340:	19 e0       	ldi	r17, 0x09	; 9
     342:	29 e7       	ldi	r18, 0x79	; 121
     344:	15 00       	.word	0x0015	; ????
     346:	25 01       	movw	r4, r10
     348:	95 08       	sbc	r9, r5
     34a:	75 01       	movw	r14, r10
     34c:	81 02       	muls	r24, r17
     34e:	95 01       	movw	r18, r10
     350:	75 08       	sbc	r7, r5
     352:	81 01       	movw	r16, r2
     354:	05 07       	cpc	r16, r21
     356:	19 00       	.word	0x0019	; ????
     358:	29 ff       	.word	0xff29	; ????
     35a:	15 00       	.word	0x0015	; ????
     35c:	26 ff       	sbrs	r18, 6
     35e:	00 95       	com	r16
     360:	06 75       	andi	r16, 0x56	; 86
     362:	08 81       	ld	r16, Y
     364:	00 05       	cpc	r16, r0
     366:	08 19       	sub	r16, r8
     368:	01 29       	or	r16, r1
     36a:	05 15       	cp	r16, r5
     36c:	00 25       	eor	r16, r0
     36e:	01 95       	neg	r16
     370:	05 75       	andi	r16, 0x55	; 85
     372:	01 91       	ld	r16, Z+
     374:	02 95       	swap	r16
     376:	01 75       	andi	r16, 0x51	; 81
     378:	03 91       	.word	0x9103	; ????
     37a:	01 c0       	rjmp	.+2      	;  0x37e
     37c:	11 24       	eor	r1, r1
     37e:	1f be       	out	0x3f, r1	; 63
     380:	cf ef       	ldi	r28, 0xFF	; 255
     382:	da e0       	ldi	r29, 0x0A	; 10
     384:	de bf       	out	0x3e, r29	; 62
     386:	cd bf       	out	0x3d, r28	; 61
     388:	11 e0       	ldi	r17, 0x01	; 1
     38a:	a0 e0       	ldi	r26, 0x00	; 0
     38c:	b1 e0       	ldi	r27, 0x01	; 1
     38e:	ec e4       	ldi	r30, 0x4C	; 76
     390:	fb e4       	ldi	r31, 0x4B	; 75
     392:	02 c0       	rjmp	.+4      	;  0x398
     394:	05 90       	lpm	r0, Z+
     396:	0d 92       	st	X+, r0
     398:	aa 3a       	cpi	r26, 0xAA	; 170
     39a:	b1 07       	cpc	r27, r17
     39c:	d9 f7       	brne	.-10     	;  0x394
     39e:	22 e0       	ldi	r18, 0x02	; 2
     3a0:	aa ea       	ldi	r26, 0xAA	; 170
     3a2:	b1 e0       	ldi	r27, 0x01	; 1
     3a4:	01 c0       	rjmp	.+2      	;  0x3a8
     3a6:	1d 92       	st	X+, r1
     3a8:	a5 3a       	cpi	r26, 0xA5	; 165
     3aa:	b2 07       	cpc	r27, r18
     3ac:	e1 f7       	brne	.-8      	;  0x3a6
     3ae:	0e 94 77 14 	call	0x28ee	;  0x28ee
     3b2:	0c 94 65 25 	jmp	0x4aca	;  0x4aca
     3b6:	0c 94 00 00 	jmp	0	;  0x0
     3ba:	55 98       	cbi	0x0a, 5	; 10
     3bc:	5d 98       	cbi	0x0b, 5	; 11
     3be:	20 98       	cbi	0x04, 0	; 4
     3c0:	28 98       	cbi	0x05, 0	; 5
     3c2:	08 95       	ret
     3c4:	24 e0       	ldi	r18, 0x04	; 4
     3c6:	43 e0       	ldi	r20, 0x03	; 3
     3c8:	62 e0       	ldi	r22, 0x02	; 2
     3ca:	0e 94 9b 08 	call	0x1136	;  0x1136
     3ce:	08 95       	ret
     3d0:	9c 01       	movw	r18, r24
     3d2:	fb 01       	movw	r30, r22
     3d4:	85 81       	ldd	r24, Z+5	; 0x05
     3d6:	88 23       	and	r24, r24
     3d8:	79 f0       	breq	.+30     	;  0x3f8
     3da:	20 34       	cpi	r18, 0x40	; 64
     3dc:	fe e7       	ldi	r31, 0x7E	; 126
     3de:	3f 07       	cpc	r19, r31
     3e0:	21 f0       	breq	.+8      	;  0x3ea
     3e2:	21 34       	cpi	r18, 0x41	; 65
     3e4:	3e 47       	sbci	r19, 0x7E	; 126
     3e6:	31 f0       	breq	.+12     	;  0x3f4
     3e8:	08 95       	ret
     3ea:	80 e0       	ldi	r24, 0x00	; 0
     3ec:	0e 94 7c 02 	call	0x4f8	;  0x4f8
     3f0:	80 e0       	ldi	r24, 0x00	; 0
     3f2:	08 95       	ret
     3f4:	81 e0       	ldi	r24, 0x01	; 1
     3f6:	fa cf       	rjmp	.-12     	;  0x3ec
     3f8:	81 e0       	ldi	r24, 0x01	; 1
     3fa:	08 95       	ret
     3fc:	85 30       	cpi	r24, 0x05	; 5
     3fe:	b8 f4       	brcc	.+46     	;  0x42e
     400:	68 30       	cpi	r22, 0x08	; 8
     402:	a8 f4       	brcc	.+42     	;  0x42e
     404:	45 30       	cpi	r20, 0x05	; 5
     406:	98 f4       	brcc	.+38     	;  0x42e
     408:	50 e0       	ldi	r21, 0x00	; 0
     40a:	95 e0       	ldi	r25, 0x05	; 5
     40c:	69 9f       	mul	r22, r25
     40e:	40 0d       	add	r20, r0
     410:	51 1d       	adc	r21, r1
     412:	11 24       	eor	r1, r1
     414:	fa 01       	movw	r30, r20
     416:	98 e2       	ldi	r25, 0x28	; 40
     418:	89 9f       	mul	r24, r25
     41a:	e0 0d       	add	r30, r0
     41c:	f1 1d       	adc	r31, r1
     41e:	11 24       	eor	r1, r1
     420:	ee 0f       	add	r30, r30
     422:	ff 1f       	adc	r31, r31
     424:	e4 55       	subi	r30, 0x54	; 84
     426:	ff 4f       	sbci	r31, 0xFF	; 255
     428:	85 91       	lpm	r24, Z+
     42a:	94 91       	lpm	r25, Z
     42c:	08 95       	ret
     42e:	81 e0       	ldi	r24, 0x01	; 1
     430:	90 e0       	ldi	r25, 0x00	; 0
     432:	08 95       	ret
     434:	0e 94 fe 01 	call	0x3fc	;  0x3fc
     438:	08 95       	ret
     43a:	81 e0       	ldi	r24, 0x01	; 1
     43c:	08 95       	ret
     43e:	0e 94 1d 02 	call	0x43a	;  0x43a
     442:	08 95       	ret
     444:	81 e0       	ldi	r24, 0x01	; 1
     446:	08 95       	ret
     448:	0e 94 e8 01 	call	0x3d0	;  0x3d0
     44c:	08 95       	ret
     44e:	08 95       	ret
     450:	0e 94 27 02 	call	0x44e	;  0x44e
     454:	08 95       	ret
     456:	a6 e0       	ldi	r26, 0x06	; 6
     458:	b0 e0       	ldi	r27, 0x00	; 0
     45a:	e1 e3       	ldi	r30, 0x31	; 49
     45c:	f2 e0       	ldi	r31, 0x02	; 2
     45e:	0c 94 c1 24 	jmp	0x4982	;  0x4982
     462:	49 83       	std	Y+1, r20	; 0x01
     464:	5a 83       	std	Y+2, r21	; 0x02
     466:	9e 83       	std	Y+6, r25	; 0x06
     468:	30 91 b1 01 	lds	r19, 0x01B1	;  0x8001b1
     46c:	89 81       	ldd	r24, Y+1	; 0x01
     46e:	9a 81       	ldd	r25, Y+2	; 0x02
     470:	31 11       	cpse	r19, r1
     472:	1a c0       	rjmp	.+52     	;  0x4a8
     474:	3e 81       	ldd	r19, Y+6	; 0x06
     476:	33 23       	and	r19, r19
     478:	99 f0       	breq	.+38     	;  0x4a0
     47a:	22 23       	and	r18, r18
     47c:	89 f0       	breq	.+34     	;  0x4a0
     47e:	0e 94 3b 08 	call	0x1076	;  0x1076
     482:	18 2f       	mov	r17, r24
     484:	68 2f       	mov	r22, r24
     486:	89 81       	ldd	r24, Y+1	; 0x01
     488:	9a 81       	ldd	r25, Y+2	; 0x02
     48a:	0e 94 17 08 	call	0x102e	;  0x102e
     48e:	69 81       	ldd	r22, Y+1	; 0x01
     490:	7a 81       	ldd	r23, Y+2	; 0x02
     492:	81 2f       	mov	r24, r17
     494:	0e 94 51 0f 	call	0x1ea2	;  0x1ea2
     498:	26 96       	adiw	r28, 0x06	; 6
     49a:	e3 e0       	ldi	r30, 0x03	; 3
     49c:	0c 94 dd 24 	jmp	0x49ba	;  0x49ba
     4a0:	0e 94 29 08 	call	0x1052	;  0x1052
     4a4:	18 2f       	mov	r17, r24
     4a6:	f3 cf       	rjmp	.-26     	;  0x48e
     4a8:	0e 94 3b 08 	call	0x1076	;  0x1076
     4ac:	69 81       	ldd	r22, Y+1	; 0x01
     4ae:	7a 81       	ldd	r23, Y+2	; 0x02
     4b0:	f1 cf       	rjmp	.-30     	;  0x494
     4b2:	fc 01       	movw	r30, r24
     4b4:	26 2f       	mov	r18, r22
     4b6:	40 81       	ld	r20, Z
     4b8:	51 81       	ldd	r21, Z+1	; 0x01
     4ba:	62 81       	ldd	r22, Z+2	; 0x02
     4bc:	73 81       	ldd	r23, Z+3	; 0x03
     4be:	84 81       	ldd	r24, Z+4	; 0x04
     4c0:	95 81       	ldd	r25, Z+5	; 0x05
     4c2:	0e 94 2b 02 	call	0x456	;  0x456
     4c6:	08 95       	ret
     4c8:	cf 93       	push	r28
     4ca:	df 93       	push	r29
     4cc:	ec 01       	movw	r28, r24
     4ce:	61 e0       	ldi	r22, 0x01	; 1
     4d0:	0e 94 59 02 	call	0x4b2	;  0x4b2
     4d4:	be 01       	movw	r22, r28
     4d6:	0e 94 1f 02 	call	0x43e	;  0x43e
     4da:	df 91       	pop	r29
     4dc:	cf 91       	pop	r28
     4de:	08 95       	ret
     4e0:	cf 93       	push	r28
     4e2:	df 93       	push	r29
     4e4:	ec 01       	movw	r28, r24
     4e6:	60 e0       	ldi	r22, 0x00	; 0
     4e8:	0e 94 59 02 	call	0x4b2	;  0x4b2
     4ec:	be 01       	movw	r22, r28
     4ee:	0e 94 28 02 	call	0x450	;  0x450
     4f2:	df 91       	pop	r29
     4f4:	cf 91       	pop	r28
     4f6:	08 95       	ret
     4f8:	cf 93       	push	r28
     4fa:	df 93       	push	r29
     4fc:	c1 e0       	ldi	r28, 0x01	; 1
     4fe:	d0 e0       	ldi	r29, 0x00	; 0
     500:	02 c0       	rjmp	.+4      	;  0x506
     502:	cc 0f       	add	r28, r28
     504:	dd 1f       	adc	r29, r29
     506:	8a 95       	dec	r24
     508:	e2 f7       	brpl	.-8      	;  0x502
     50a:	8c 2f       	mov	r24, r28
     50c:	0e 94 ba 0c 	call	0x1974	;  0x1974
     510:	ce 01       	movw	r24, r28
     512:	0e 94 3c 07 	call	0xe78	;  0xe78
     516:	df 91       	pop	r29
     518:	cf 91       	pop	r28
     51a:	08 95       	ret
     51c:	08 95       	ret
     51e:	0e 94 ef 06 	call	0xdde	;  0xdde
     522:	0e 94 8e 02 	call	0x51c	;  0x51c
     526:	2f ef       	ldi	r18, 0xFF	; 255
     528:	84 e3       	ldi	r24, 0x34	; 52
     52a:	9c e0       	ldi	r25, 0x0C	; 12
     52c:	21 50       	subi	r18, 0x01	; 1
     52e:	80 40       	sbci	r24, 0x00	; 0
     530:	90 40       	sbci	r25, 0x00	; 0
     532:	e1 f7       	brne	.-8      	;  0x52c
     534:	00 c0       	rjmp	.+0      	;  0x536
     536:	00 00       	nop
     538:	08 95       	ret
     53a:	0e 94 8f 02 	call	0x51e	;  0x51e
     53e:	0e 94 2c 1c 	call	0x3858	;  0x3858
     542:	08 95       	ret
     544:	0e 94 8f 02 	call	0x51e	;  0x51e
     548:	0e 94 3d 1c 	call	0x387a	;  0x387a
     54c:	08 95       	ret
     54e:	0f 93       	push	r16
     550:	1f 93       	push	r17
     552:	cf 93       	push	r28
     554:	df 93       	push	r29
     556:	8c 01       	movw	r16, r24
     558:	61 e0       	ldi	r22, 0x01	; 1
     55a:	0e 94 59 02 	call	0x4b2	;  0x4b2
     55e:	ec 01       	movw	r28, r24
     560:	b8 01       	movw	r22, r16
     562:	0e 94 24 02 	call	0x448	;  0x448
     566:	81 11       	cpse	r24, r1
     568:	06 c0       	rjmp	.+12     	;  0x576
     56a:	80 e0       	ldi	r24, 0x00	; 0
     56c:	df 91       	pop	r29
     56e:	cf 91       	pop	r28
     570:	1f 91       	pop	r17
     572:	0f 91       	pop	r16
     574:	08 95       	ret
     576:	b8 01       	movw	r22, r16
     578:	ce 01       	movw	r24, r28
     57a:	0e 94 db 19 	call	0x33b6	;  0x33b6
     57e:	88 23       	and	r24, r24
     580:	a1 f3       	breq	.-24     	;  0x56a
     582:	b8 01       	movw	r22, r16
     584:	ce 01       	movw	r24, r28
     586:	0e 94 25 17 	call	0x2e4a	;  0x2e4a
     58a:	88 23       	and	r24, r24
     58c:	71 f3       	breq	.-36     	;  0x56a
     58e:	b8 01       	movw	r22, r16
     590:	ce 01       	movw	r24, r28
     592:	0e 94 4d 19 	call	0x329a	;  0x329a
     596:	88 23       	and	r24, r24
     598:	41 f3       	breq	.-48     	;  0x56a
     59a:	f8 01       	movw	r30, r16
     59c:	85 81       	ldd	r24, Z+5	; 0x05
     59e:	88 23       	and	r24, r24
     5a0:	61 f0       	breq	.+24     	;  0x5ba
     5a2:	c3 30       	cpi	r28, 0x03	; 3
     5a4:	fc e7       	ldi	r31, 0x7C	; 124
     5a6:	df 07       	cpc	r29, r31
     5a8:	e9 f0       	breq	.+58     	;  0x5e4
     5aa:	58 f4       	brcc	.+22     	;  0x5c2
     5ac:	c1 15       	cp	r28, r1
     5ae:	ec e7       	ldi	r30, 0x7C	; 124
     5b0:	de 07       	cpc	r29, r30
     5b2:	a9 f0       	breq	.+42     	;  0x5de
     5b4:	c1 30       	cpi	r28, 0x01	; 1
     5b6:	dc 47       	sbci	r29, 0x7C	; 124
     5b8:	b9 f0       	breq	.+46     	;  0x5e8
     5ba:	c8 01       	movw	r24, r16
     5bc:	0e 94 22 02 	call	0x444	;  0x444
     5c0:	d5 cf       	rjmp	.-86     	;  0x56c
     5c2:	cb 35       	cpi	r28, 0x5B	; 91
     5c4:	8c e7       	ldi	r24, 0x7C	; 124
     5c6:	d8 07       	cpc	r29, r24
     5c8:	a9 f0       	breq	.+42     	;  0x5f4
     5ca:	cc 35       	cpi	r28, 0x5C	; 92
     5cc:	ec e7       	ldi	r30, 0x7C	; 124
     5ce:	de 07       	cpc	r29, r30
     5d0:	71 f0       	breq	.+28     	;  0x5ee
     5d2:	ca 35       	cpi	r28, 0x5A	; 90
     5d4:	dc 47       	sbci	r29, 0x7C	; 124
     5d6:	89 f7       	brne	.-30     	;  0x5ba
     5d8:	0e 94 96 0c 	call	0x192c	;  0x192c
     5dc:	ee cf       	rjmp	.-36     	;  0x5ba
     5de:	0e 94 9d 02 	call	0x53a	;  0x53a
     5e2:	c3 cf       	rjmp	.-122    	;  0x56a
     5e4:	0e 94 9e 0c 	call	0x193c	;  0x193c
     5e8:	0e 94 a2 02 	call	0x544	;  0x544
     5ec:	be cf       	rjmp	.-132    	;  0x56a
     5ee:	0e 94 8c 0c 	call	0x1918	;  0x1918
     5f2:	e3 cf       	rjmp	.-58     	;  0x5ba
     5f4:	0e 94 9a 0c 	call	0x1934	;  0x1934
     5f8:	e0 cf       	rjmp	.-64     	;  0x5ba
     5fa:	0e 94 42 1b 	call	0x3684	;  0x3684
     5fe:	0e 94 24 03 	call	0x648	;  0x648
     602:	08 95       	ret
     604:	0e 94 28 03 	call	0x650	;  0x650
     608:	0e 94 47 1b 	call	0x368e	;  0x368e
     60c:	08 95       	ret
     60e:	08 95       	ret
     610:	81 e0       	ldi	r24, 0x01	; 1
     612:	08 95       	ret
     614:	08 95       	ret
     616:	cf 93       	push	r28
     618:	df 93       	push	r29
     61a:	d8 2f       	mov	r29, r24
     61c:	0e 94 08 03 	call	0x610	;  0x610
     620:	c8 2f       	mov	r28, r24
     622:	88 23       	and	r24, r24
     624:	19 f0       	breq	.+6      	;  0x62c
     626:	8d 2f       	mov	r24, r29
     628:	0e 94 0a 03 	call	0x614	;  0x614
     62c:	8c 2f       	mov	r24, r28
     62e:	df 91       	pop	r29
     630:	cf 91       	pop	r28
     632:	08 95       	ret
     634:	08 95       	ret
     636:	cf 93       	push	r28
     638:	c8 2f       	mov	r28, r24
     63a:	0e 94 07 03 	call	0x60e	;  0x60e
     63e:	8c 2f       	mov	r24, r28
     640:	0e 94 0b 03 	call	0x616	;  0x616
     644:	cf 91       	pop	r28
     646:	08 95       	ret
     648:	80 e0       	ldi	r24, 0x00	; 0
     64a:	0e 94 1b 03 	call	0x636	;  0x636
     64e:	08 95       	ret
     650:	0e 94 24 1a 	call	0x3448	;  0x3448
     654:	0e 94 1b 03 	call	0x636	;  0x636
     658:	08 95       	ret
     65a:	cf 93       	push	r28
     65c:	0e 94 24 1a 	call	0x3448	;  0x3448
     660:	c8 2f       	mov	r28, r24
     662:	80 91 ac 01 	lds	r24, 0x01AC	;  0x8001ac
     666:	8c 17       	cp	r24, r28
     668:	79 f0       	breq	.+30     	;  0x688
     66a:	c0 93 ac 01 	sts	0x01AC, r28	;  0x8001ac
     66e:	0e 94 d1 1b 	call	0x37a2	;  0x37a2
     672:	60 93 ad 01 	sts	0x01AD, r22	;  0x8001ad
     676:	70 93 ae 01 	sts	0x01AE, r23	;  0x8001ae
     67a:	80 93 af 01 	sts	0x01AF, r24	;  0x8001af
     67e:	90 93 b0 01 	sts	0x01B0, r25	;  0x8001b0
     682:	8c 2f       	mov	r24, r28
     684:	0e 94 1b 03 	call	0x636	;  0x636
     688:	cf 91       	pop	r28
     68a:	08 95       	ret
     68c:	ad e0       	ldi	r26, 0x0D	; 13
     68e:	b0 e0       	ldi	r27, 0x00	; 0
     690:	ec e4       	ldi	r30, 0x4C	; 76
     692:	f3 e0       	ldi	r31, 0x03	; 3
     694:	0c 94 c2 24 	jmp	0x4984	;  0x4984
     698:	48 87       	std	Y+8, r20	; 0x08
     69a:	59 87       	std	Y+9, r21	; 0x09
     69c:	6a 87       	std	Y+10, r22	; 0x0a
     69e:	7b 87       	std	Y+11, r23	; 0x0b
     6a0:	8c 87       	std	Y+12, r24	; 0x0c
     6a2:	9d 87       	std	Y+13, r25	; 0x0d
     6a4:	91 11       	cpse	r25, r1
     6a6:	0e 94 c4 0b 	call	0x1788	;  0x1788
     6aa:	1f 82       	std	Y+7, r1	; 0x07
     6ac:	86 e0       	ldi	r24, 0x06	; 6
     6ae:	fe 01       	movw	r30, r28
     6b0:	38 96       	adiw	r30, 0x08	; 8
     6b2:	de 01       	movw	r26, r28
     6b4:	11 96       	adiw	r26, 0x01	; 1
     6b6:	01 90       	ld	r0, Z+
     6b8:	0d 92       	st	X+, r0
     6ba:	8a 95       	dec	r24
     6bc:	e1 f7       	brne	.-8      	;  0x6b6
     6be:	8d 81       	ldd	r24, Y+5	; 0x05
     6c0:	81 11       	cpse	r24, r1
     6c2:	0d c0       	rjmp	.+26     	;  0x6de
     6c4:	29 81       	ldd	r18, Y+1	; 0x01
     6c6:	3a 81       	ldd	r19, Y+2	; 0x02
     6c8:	4b 81       	ldd	r20, Y+3	; 0x03
     6ca:	5c 81       	ldd	r21, Y+4	; 0x04
     6cc:	6d 81       	ldd	r22, Y+5	; 0x05
     6ce:	7e 81       	ldd	r23, Y+6	; 0x06
     6d0:	8f 81       	ldd	r24, Y+7	; 0x07
     6d2:	0e 94 f7 0a 	call	0x15ee	;  0x15ee
     6d6:	2d 96       	adiw	r28, 0x0d	; 13
     6d8:	e2 e0       	ldi	r30, 0x02	; 2
     6da:	0c 94 de 24 	jmp	0x49bc	;  0x49bc
     6de:	ce 01       	movw	r24, r28
     6e0:	01 96       	adiw	r24, 0x01	; 1
     6e2:	0e 94 64 02 	call	0x4c8	;  0x4c8
     6e6:	81 11       	cpse	r24, r1
     6e8:	ed cf       	rjmp	.-38     	;  0x6c4
     6ea:	f5 cf       	rjmp	.-22     	;  0x6d6
     6ec:	fc 01       	movw	r30, r24
     6ee:	24 81       	ldd	r18, Z+4	; 0x04
     6f0:	21 30       	cpi	r18, 0x01	; 1
     6f2:	21 f4       	brne	.+8      	;  0x6fc
     6f4:	80 81       	ld	r24, Z
     6f6:	91 81       	ldd	r25, Z+1	; 0x01
     6f8:	0e 94 6d 08 	call	0x10da	;  0x10da
     6fc:	08 95       	ret
     6fe:	66 23       	and	r22, r22
     700:	29 f0       	breq	.+10     	;  0x70c
     702:	0e 94 0e 15 	call	0x2a1c	;  0x2a1c
     706:	0e 94 e1 15 	call	0x2bc2	;  0x2bc2
     70a:	08 95       	ret
     70c:	0e 94 68 15 	call	0x2ad0	;  0x2ad0
     710:	fa cf       	rjmp	.-12     	;  0x706
     712:	cf 93       	push	r28
     714:	c8 2f       	mov	r28, r24
     716:	88 23       	and	r24, r24
     718:	c9 f0       	breq	.+50     	;  0x74c
     71a:	82 38       	cpi	r24, 0x82	; 130
     71c:	c9 f4       	brne	.+50     	;  0x750
     71e:	0e 94 38 1a 	call	0x3470	;  0x3470
     722:	81 fd       	sbrc	r24, 1
     724:	13 c0       	rjmp	.+38     	;  0x74c
     726:	89 e3       	ldi	r24, 0x39	; 57
     728:	0e 94 7c 0b 	call	0x16f8	;  0x16f8
     72c:	0e 94 fd 0b 	call	0x17fa	;  0x17fa
     730:	2f ef       	ldi	r18, 0xFF	; 255
     732:	87 ee       	ldi	r24, 0xE7	; 231
     734:	93 e0       	ldi	r25, 0x03	; 3
     736:	21 50       	subi	r18, 0x01	; 1
     738:	80 40       	sbci	r24, 0x00	; 0
     73a:	90 40       	sbci	r25, 0x00	; 0
     73c:	e1 f7       	brne	.-8      	;  0x736
     73e:	00 c0       	rjmp	.+0      	;  0x740
     740:	00 00       	nop
     742:	89 e3       	ldi	r24, 0x39	; 57
     744:	0e 94 84 0b 	call	0x1708	;  0x1708
     748:	0e 94 fd 0b 	call	0x17fa	;  0x17fa
     74c:	cf 91       	pop	r28
     74e:	08 95       	ret
     750:	83 38       	cpi	r24, 0x83	; 131
     752:	a1 f4       	brne	.+40     	;  0x77c
     754:	0e 94 38 1a 	call	0x3470	;  0x3470
     758:	80 fd       	sbrc	r24, 0
     75a:	f8 cf       	rjmp	.-16     	;  0x74c
     75c:	83 e5       	ldi	r24, 0x53	; 83
     75e:	0e 94 7c 0b 	call	0x16f8	;  0x16f8
     762:	0e 94 fd 0b 	call	0x17fa	;  0x17fa
     766:	2f ef       	ldi	r18, 0xFF	; 255
     768:	81 ee       	ldi	r24, 0xE1	; 225
     76a:	94 e0       	ldi	r25, 0x04	; 4
     76c:	21 50       	subi	r18, 0x01	; 1
     76e:	80 40       	sbci	r24, 0x00	; 0
     770:	90 40       	sbci	r25, 0x00	; 0
     772:	e1 f7       	brne	.-8      	;  0x76c
     774:	00 c0       	rjmp	.+0      	;  0x776
     776:	00 00       	nop
     778:	83 e5       	ldi	r24, 0x53	; 83
     77a:	e4 cf       	rjmp	.-56     	;  0x744
     77c:	84 38       	cpi	r24, 0x84	; 132
     77e:	a1 f4       	brne	.+40     	;  0x7a8
     780:	0e 94 38 1a 	call	0x3470	;  0x3470
     784:	82 fd       	sbrc	r24, 2
     786:	e2 cf       	rjmp	.-60     	;  0x74c
     788:	87 e4       	ldi	r24, 0x47	; 71
     78a:	0e 94 7c 0b 	call	0x16f8	;  0x16f8
     78e:	0e 94 fd 0b 	call	0x17fa	;  0x17fa
     792:	2f ef       	ldi	r18, 0xFF	; 255
     794:	81 ee       	ldi	r24, 0xE1	; 225
     796:	94 e0       	ldi	r25, 0x04	; 4
     798:	21 50       	subi	r18, 0x01	; 1
     79a:	80 40       	sbci	r24, 0x00	; 0
     79c:	90 40       	sbci	r25, 0x00	; 0
     79e:	e1 f7       	brne	.-8      	;  0x798
     7a0:	00 c0       	rjmp	.+0      	;  0x7a2
     7a2:	00 00       	nop
     7a4:	87 e4       	ldi	r24, 0x47	; 71
     7a6:	ce cf       	rjmp	.-100    	;  0x744
     7a8:	8c ef       	ldi	r24, 0xFC	; 252
     7aa:	8c 0f       	add	r24, r28
     7ac:	81 3a       	cpi	r24, 0xA1	; 161
     7ae:	b8 f4       	brcc	.+46     	;  0x7de
     7b0:	8c 2f       	mov	r24, r28
     7b2:	0e 94 92 18 	call	0x3124	;  0x3124
     7b6:	81 11       	cpse	r24, r1
     7b8:	c9 cf       	rjmp	.-110    	;  0x74c
     7ba:	6c 2f       	mov	r22, r28
     7bc:	80 91 00 01 	lds	r24, 0x0100	;  0x800100
     7c0:	90 91 01 01 	lds	r25, 0x0101	;  0x800101
     7c4:	0e 94 b0 1a 	call	0x3560	;  0x3560
     7c8:	88 23       	and	r24, r24
     7ca:	29 f0       	breq	.+10     	;  0x7d6
     7cc:	8c 2f       	mov	r24, r28
     7ce:	0e 94 84 0b 	call	0x1708	;  0x1708
     7d2:	0e 94 fd 0b 	call	0x17fa	;  0x17fa
     7d6:	8c 2f       	mov	r24, r28
     7d8:	0e 94 7c 0b 	call	0x16f8	;  0x16f8
     7dc:	b5 cf       	rjmp	.-150    	;  0x748
     7de:	80 e2       	ldi	r24, 0x20	; 32
     7e0:	8c 0f       	add	r24, r28
     7e2:	88 30       	cpi	r24, 0x08	; 8
     7e4:	48 f4       	brcc	.+18     	;  0x7f8
     7e6:	c7 70       	andi	r28, 0x07	; 7
     7e8:	81 e0       	ldi	r24, 0x01	; 1
     7ea:	01 c0       	rjmp	.+2      	;  0x7ee
     7ec:	88 0f       	add	r24, r24
     7ee:	ca 95       	dec	r28
     7f0:	ea f7       	brpl	.-6      	;  0x7ec
     7f2:	0e 94 a7 0b 	call	0x174e	;  0x174e
     7f6:	a8 cf       	rjmp	.-176    	;  0x748
     7f8:	eb e5       	ldi	r30, 0x5B	; 91
     7fa:	ec 0f       	add	r30, r28
     7fc:	e3 30       	cpi	r30, 0x03	; 3
     7fe:	40 f4       	brcc	.+16     	;  0x810
     800:	f0 e0       	ldi	r31, 0x00	; 0
     802:	ee 59       	subi	r30, 0x9E	; 158
     804:	fe 4f       	sbci	r31, 0xFE	; 254
     806:	80 81       	ld	r24, Z
     808:	90 e0       	ldi	r25, 0x00	; 0
     80a:	0e 94 54 1a 	call	0x34a8	;  0x34a8
     80e:	9e cf       	rjmp	.-196    	;  0x74c
     810:	e8 e5       	ldi	r30, 0x58	; 88
     812:	ec 0f       	add	r30, r28
     814:	eb 31       	cpi	r30, 0x1B	; 27
     816:	50 f4       	brcc	.+20     	;  0x82c
     818:	f0 e0       	ldi	r31, 0x00	; 0
     81a:	ee 0f       	add	r30, r30
     81c:	ff 1f       	adc	r31, r31
     81e:	e4 5d       	subi	r30, 0xD4	; 212
     820:	fe 4f       	sbci	r31, 0xFE	; 254
     822:	80 81       	ld	r24, Z
     824:	91 81       	ldd	r25, Z+1	; 0x01
     826:	0e 94 79 1a 	call	0x34f2	;  0x34f2
     82a:	90 cf       	rjmp	.-224    	;  0x74c
     82c:	83 e3       	ldi	r24, 0x33	; 51
     82e:	8c 0f       	add	r24, r28
     830:	83 31       	cpi	r24, 0x13	; 19
     832:	08 f0       	brcs	.+2      	;  0x836
     834:	8b cf       	rjmp	.-234    	;  0x74c
     836:	61 e0       	ldi	r22, 0x01	; 1
     838:	8c 2f       	mov	r24, r28
     83a:	0e 94 7f 03 	call	0x6fe	;  0x6fe
     83e:	86 cf       	rjmp	.-244    	;  0x74c
     840:	88 23       	and	r24, r24
     842:	09 f4       	brne	.+2      	;  0x846
     844:	56 c0       	rjmp	.+172    	;  0x8f2
     846:	82 38       	cpi	r24, 0x82	; 130
     848:	79 f4       	brne	.+30     	;  0x868
     84a:	0e 94 38 1a 	call	0x3470	;  0x3470
     84e:	81 ff       	sbrs	r24, 1
     850:	50 c0       	rjmp	.+160    	;  0x8f2
     852:	89 e3       	ldi	r24, 0x39	; 57
     854:	0e 94 7c 0b 	call	0x16f8	;  0x16f8
     858:	0e 94 fd 0b 	call	0x17fa	;  0x17fa
     85c:	89 e3       	ldi	r24, 0x39	; 57
     85e:	0e 94 84 0b 	call	0x1708	;  0x1708
     862:	0e 94 fd 0b 	call	0x17fa	;  0x17fa
     866:	08 95       	ret
     868:	83 38       	cpi	r24, 0x83	; 131
     86a:	59 f4       	brne	.+22     	;  0x882
     86c:	0e 94 38 1a 	call	0x3470	;  0x3470
     870:	80 ff       	sbrs	r24, 0
     872:	3f c0       	rjmp	.+126    	;  0x8f2
     874:	83 e5       	ldi	r24, 0x53	; 83
     876:	0e 94 7c 0b 	call	0x16f8	;  0x16f8
     87a:	0e 94 fd 0b 	call	0x17fa	;  0x17fa
     87e:	83 e5       	ldi	r24, 0x53	; 83
     880:	ee cf       	rjmp	.-36     	;  0x85e
     882:	84 38       	cpi	r24, 0x84	; 132
     884:	59 f4       	brne	.+22     	;  0x89c
     886:	0e 94 38 1a 	call	0x3470	;  0x3470
     88a:	82 ff       	sbrs	r24, 2
     88c:	32 c0       	rjmp	.+100    	;  0x8f2
     88e:	87 e4       	ldi	r24, 0x47	; 71
     890:	0e 94 7c 0b 	call	0x16f8	;  0x16f8
     894:	0e 94 fd 0b 	call	0x17fa	;  0x17fa
     898:	87 e4       	ldi	r24, 0x47	; 71
     89a:	e1 cf       	rjmp	.-62     	;  0x85e
     89c:	9c ef       	ldi	r25, 0xFC	; 252
     89e:	98 0f       	add	r25, r24
     8a0:	91 3a       	cpi	r25, 0xA1	; 161
     8a2:	e8 f2       	brcs	.-70     	;  0x85e
     8a4:	90 e2       	ldi	r25, 0x20	; 32
     8a6:	98 0f       	add	r25, r24
     8a8:	98 30       	cpi	r25, 0x08	; 8
     8aa:	50 f4       	brcc	.+20     	;  0x8c0
     8ac:	87 70       	andi	r24, 0x07	; 7
     8ae:	91 e0       	ldi	r25, 0x01	; 1
     8b0:	01 c0       	rjmp	.+2      	;  0x8b4
     8b2:	99 0f       	add	r25, r25
     8b4:	8a 95       	dec	r24
     8b6:	ea f7       	brpl	.-6      	;  0x8b2
     8b8:	89 2f       	mov	r24, r25
     8ba:	0e 94 ad 0b 	call	0x175a	;  0x175a
     8be:	d1 cf       	rjmp	.-94     	;  0x862
     8c0:	9b e5       	ldi	r25, 0x5B	; 91
     8c2:	98 0f       	add	r25, r24
     8c4:	93 30       	cpi	r25, 0x03	; 3
     8c6:	28 f4       	brcc	.+10     	;  0x8d2
     8c8:	90 e0       	ldi	r25, 0x00	; 0
     8ca:	80 e0       	ldi	r24, 0x00	; 0
     8cc:	0e 94 54 1a 	call	0x34a8	;  0x34a8
     8d0:	08 95       	ret
     8d2:	98 e5       	ldi	r25, 0x58	; 88
     8d4:	98 0f       	add	r25, r24
     8d6:	9b 31       	cpi	r25, 0x1B	; 27
     8d8:	28 f4       	brcc	.+10     	;  0x8e4
     8da:	90 e0       	ldi	r25, 0x00	; 0
     8dc:	80 e0       	ldi	r24, 0x00	; 0
     8de:	0e 94 79 1a 	call	0x34f2	;  0x34f2
     8e2:	08 95       	ret
     8e4:	93 e3       	ldi	r25, 0x33	; 51
     8e6:	98 0f       	add	r25, r24
     8e8:	93 31       	cpi	r25, 0x13	; 19
     8ea:	18 f4       	brcc	.+6      	;  0x8f2
     8ec:	60 e0       	ldi	r22, 0x00	; 0
     8ee:	0e 94 7f 03 	call	0x6fe	;  0x6fe
     8f2:	08 95       	ret
     8f4:	1f 93       	push	r17
     8f6:	cf 93       	push	r28
     8f8:	df 93       	push	r29
     8fa:	18 2f       	mov	r17, r24
     8fc:	eb 01       	movw	r28, r22
     8fe:	0e 94 89 03 	call	0x712	;  0x712
     902:	20 97       	sbiw	r28, 0x00	; 0
     904:	39 f4       	brne	.+14     	;  0x914
     906:	81 2f       	mov	r24, r17
     908:	0e 94 20 04 	call	0x840	;  0x840
     90c:	df 91       	pop	r29
     90e:	cf 91       	pop	r28
     910:	1f 91       	pop	r17
     912:	08 95       	ret
     914:	8f e9       	ldi	r24, 0x9F	; 159
     916:	9f e0       	ldi	r25, 0x0F	; 15
     918:	01 97       	sbiw	r24, 0x01	; 1
     91a:	f1 f7       	brne	.-4      	;  0x918
     91c:	00 c0       	rjmp	.+0      	;  0x91e
     91e:	00 00       	nop
     920:	21 97       	sbiw	r28, 0x01	; 1
     922:	ef cf       	rjmp	.-34     	;  0x902
     924:	70 e0       	ldi	r23, 0x00	; 0
     926:	60 e0       	ldi	r22, 0x00	; 0
     928:	89 33       	cpi	r24, 0x39	; 57
     92a:	11 f4       	brne	.+4      	;  0x930
     92c:	60 e5       	ldi	r22, 0x50	; 80
     92e:	70 e0       	ldi	r23, 0x00	; 0
     930:	0e 94 7a 04 	call	0x8f4	;  0x8f4
     934:	08 95       	ret
     936:	88 23       	and	r24, r24
     938:	21 f0       	breq	.+8      	;  0x942
     93a:	0e 94 a7 0b 	call	0x174e	;  0x174e
     93e:	0e 94 fd 0b 	call	0x17fa	;  0x17fa
     942:	08 95       	ret
     944:	88 23       	and	r24, r24
     946:	21 f0       	breq	.+8      	;  0x950
     948:	0e 94 ad 0b 	call	0x175a	;  0x175a
     94c:	0e 94 fd 0b 	call	0x17fa	;  0x17fa
     950:	08 95       	ret
     952:	b0 e0       	ldi	r27, 0x00	; 0
     954:	a0 e0       	ldi	r26, 0x00	; 0
     956:	ef ea       	ldi	r30, 0xAF	; 175
     958:	f4 e0       	ldi	r31, 0x04	; 4
     95a:	0c 94 bb 24 	jmp	0x4976	;  0x4976
     95e:	6c 01       	movw	r12, r24
     960:	d6 2f       	mov	r29, r22
     962:	c7 2f       	mov	r28, r23
     964:	fc 01       	movw	r30, r24
     966:	15 81       	ldd	r17, Z+5	; 0x05
     968:	06 81       	ldd	r16, Z+6	; 0x06
     96a:	02 95       	swap	r16
     96c:	0f 70       	andi	r16, 0x0F	; 15
     96e:	0e 94 9d 0b 	call	0x173a	;  0x173a
     972:	e8 2e       	mov	r14, r24
     974:	88 23       	and	r24, r24
     976:	e9 f0       	breq	.+58     	;  0x9b2
     978:	e1 2e       	mov	r14, r17
     97a:	11 23       	and	r17, r17
     97c:	d1 f0       	breq	.+52     	;  0x9b2
     97e:	8c 2f       	mov	r24, r28
     980:	80 7f       	andi	r24, 0xF0	; 240
     982:	80 34       	cpi	r24, 0x40	; 64
     984:	51 f0       	breq	.+20     	;  0x99a
     986:	80 e2       	ldi	r24, 0x20	; 32
     988:	8d 0f       	add	r24, r29
     98a:	88 30       	cpi	r24, 0x08	; 8
     98c:	f8 f0       	brcs	.+62     	;  0x9cc
     98e:	01 11       	cpse	r16, r1
     990:	04 c0       	rjmp	.+8      	;  0x99a
     992:	8c 2f       	mov	r24, r28
     994:	80 7e       	andi	r24, 0xE0	; 224
     996:	80 32       	cpi	r24, 0x20	; 32
     998:	c9 f0       	breq	.+50     	;  0x9cc
     99a:	80 91 81 02 	lds	r24, 0x0281	;  0x800281
     99e:	82 ff       	sbrs	r24, 2
     9a0:	15 c0       	rjmp	.+42     	;  0x9cc
     9a2:	82 e0       	ldi	r24, 0x02	; 2
     9a4:	0e 94 60 0c 	call	0x18c0	;  0x18c0
     9a8:	0e 94 9d 0b 	call	0x173a	;  0x173a
     9ac:	91 e0       	ldi	r25, 0x01	; 1
     9ae:	e8 2e       	mov	r14, r24
     9b0:	e9 26       	eor	r14, r25
     9b2:	bc 2e       	mov	r11, r28
     9b4:	b2 94       	swap	r11
     9b6:	9f e0       	ldi	r25, 0x0F	; 15
     9b8:	b9 22       	and	r11, r25
     9ba:	fb e0       	ldi	r31, 0x0B	; 11
     9bc:	fb 15       	cp	r31, r11
     9be:	b8 f1       	brcs	.+110    	;  0xa2e
     9c0:	eb 2d       	mov	r30, r11
     9c2:	f0 e0       	ldi	r31, 0x00	; 0
     9c4:	e9 59       	subi	r30, 0x99	; 153
     9c6:	fa 4d       	sbci	r31, 0xDA	; 218
     9c8:	0c 94 ac 24 	jmp	0x4958	;  0x4958
     9cc:	e1 2c       	mov	r14, r1
     9ce:	f1 cf       	rjmp	.-30     	;  0x9b2
     9d0:	0c 2f       	mov	r16, r28
     9d2:	0f 70       	andi	r16, 0x0F	; 15
     9d4:	c0 7f       	andi	r28, 0xF0	; 240
     9d6:	11 f0       	breq	.+4      	;  0x9dc
     9d8:	02 95       	swap	r16
     9da:	00 7f       	andi	r16, 0xF0	; 240
     9dc:	11 23       	and	r17, r17
     9de:	99 f0       	breq	.+38     	;  0xa06
     9e0:	00 23       	and	r16, r16
     9e2:	59 f0       	breq	.+22     	;  0x9fa
     9e4:	80 e2       	ldi	r24, 0x20	; 32
     9e6:	8d 0f       	add	r24, r29
     9e8:	88 30       	cpi	r24, 0x08	; 8
     9ea:	10 f0       	brcs	.+4      	;  0x9f0
     9ec:	d1 11       	cpse	r29, r1
     9ee:	07 c0       	rjmp	.+14     	;  0x9fe
     9f0:	80 2f       	mov	r24, r16
     9f2:	0e 94 a7 0b 	call	0x174e	;  0x174e
     9f6:	0e 94 fd 0b 	call	0x17fa	;  0x17fa
     9fa:	8d 2f       	mov	r24, r29
     9fc:	5a c0       	rjmp	.+180    	;  0xab2
     9fe:	80 2f       	mov	r24, r16
     a00:	0e 94 b7 0b 	call	0x176e	;  0x176e
     a04:	f8 cf       	rjmp	.-16     	;  0x9f6
     a06:	8d 2f       	mov	r24, r29
     a08:	0e 94 20 04 	call	0x840	;  0x840
     a0c:	00 23       	and	r16, r16
     a0e:	79 f0       	breq	.+30     	;  0xa2e
     a10:	80 e2       	ldi	r24, 0x20	; 32
     a12:	8d 0f       	add	r24, r29
     a14:	88 30       	cpi	r24, 0x08	; 8
     a16:	10 f0       	brcs	.+4      	;  0xa1c
     a18:	d1 11       	cpse	r29, r1
     a1a:	04 c0       	rjmp	.+8      	;  0xa24
     a1c:	80 2f       	mov	r24, r16
     a1e:	0e 94 ad 0b 	call	0x175a	;  0x175a
     a22:	03 c0       	rjmp	.+6      	;  0xa2a
     a24:	80 2f       	mov	r24, r16
     a26:	0e 94 bd 0b 	call	0x177a	;  0x177a
     a2a:	0e 94 fd 0b 	call	0x17fa	;  0x17fa
     a2e:	eb 2d       	mov	r30, r11
     a30:	e8 50       	subi	r30, 0x08	; 8
     a32:	ff 0b       	sbc	r31, r31
     a34:	34 97       	sbiw	r30, 0x04	; 4
     a36:	20 f4       	brcc	.+8      	;  0xa40
     a38:	0e 94 24 1a 	call	0x3448	;  0x3448
     a3c:	0e 94 1b 03 	call	0x636	;  0x636
     a40:	ee 20       	and	r14, r14
     a42:	89 f0       	breq	.+34     	;  0xa66
     a44:	0e 94 99 0b 	call	0x1732	;  0x1732
     a48:	80 fd       	sbrc	r24, 0
     a4a:	0d c0       	rjmp	.+26     	;  0xa66
     a4c:	f6 01       	movw	r30, r12
     a4e:	15 82       	std	Z+5, r1	; 0x05
     a50:	0e 94 93 0b 	call	0x1726	;  0x1726
     a54:	0e 94 75 07 	call	0xeea	;  0xeea
     a58:	c6 01       	movw	r24, r12
     a5a:	0e 94 b6 06 	call	0xd6c	;  0xd6c
     a5e:	0e 94 93 0b 	call	0x1726	;  0x1726
     a62:	0e 94 85 07 	call	0xf0a	;  0xf0a
     a66:	cd b7       	in	r28, 0x3d	; 61
     a68:	de b7       	in	r29, 0x3e	; 62
     a6a:	e9 e0       	ldi	r30, 0x09	; 9
     a6c:	0c 94 d7 24 	jmp	0x49ae	;  0x49ae
     a70:	2c 2f       	mov	r18, r28
     a72:	2f 70       	andi	r18, 0x0F	; 15
     a74:	f2 2e       	mov	r15, r18
     a76:	c0 7f       	andi	r28, 0xF0	; 240
     a78:	c0 32       	cpi	r28, 0x20	; 32
     a7a:	19 f0       	breq	.+6      	;  0xa82
     a7c:	f2 94       	swap	r15
     a7e:	80 ef       	ldi	r24, 0xF0	; 240
     a80:	f8 22       	and	r15, r24
     a82:	dd 23       	and	r29, r29
     a84:	41 f0       	breq	.+16     	;  0xa96
     a86:	d1 30       	cpi	r29, 0x01	; 1
     a88:	d1 f1       	breq	.+116    	;  0xafe
     a8a:	11 23       	and	r17, r17
     a8c:	09 f4       	brne	.+2      	;  0xa90
     a8e:	44 c0       	rjmp	.+136    	;  0xb18
     a90:	00 23       	and	r16, r16
     a92:	f1 f0       	breq	.+60     	;  0xad0
     a94:	b2 cf       	rjmp	.-156    	;  0x9fa
     a96:	80 91 81 02 	lds	r24, 0x0281	;  0x800281
     a9a:	82 fd       	sbrc	r24, 2
     a9c:	15 c0       	rjmp	.+42     	;  0xac8
     a9e:	11 23       	and	r17, r17
     aa0:	59 f0       	breq	.+22     	;  0xab8
     aa2:	ff 20       	and	r15, r15
     aa4:	29 f0       	breq	.+10     	;  0xab0
     aa6:	8f 2d       	mov	r24, r15
     aa8:	0e 94 a7 0b 	call	0x174e	;  0x174e
     aac:	0e 94 fd 0b 	call	0x17fa	;  0x17fa
     ab0:	80 e0       	ldi	r24, 0x00	; 0
     ab2:	0e 94 89 03 	call	0x712	;  0x712
     ab6:	bb cf       	rjmp	.-138    	;  0xa2e
     ab8:	80 e0       	ldi	r24, 0x00	; 0
     aba:	0e 94 20 04 	call	0x840	;  0x840
     abe:	ff 20       	and	r15, r15
     ac0:	09 f4       	brne	.+2      	;  0xac4
     ac2:	b5 cf       	rjmp	.-150    	;  0xa2e
     ac4:	8f 2d       	mov	r24, r15
     ac6:	ab cf       	rjmp	.-170    	;  0xa1e
     ac8:	11 23       	and	r17, r17
     aca:	69 f0       	breq	.+26     	;  0xae6
     acc:	01 11       	cpse	r16, r1
     ace:	04 c0       	rjmp	.+8      	;  0xad8
     ad0:	8f 2d       	mov	r24, r15
     ad2:	0e 94 9b 04 	call	0x936	;  0x936
     ad6:	ab cf       	rjmp	.-170    	;  0xa2e
     ad8:	01 30       	cpi	r16, 0x01	; 1
     ada:	09 f0       	breq	.+2      	;  0xade
     adc:	a8 cf       	rjmp	.-176    	;  0xa2e
     ade:	8f 2d       	mov	r24, r15
     ae0:	0e 94 db 0b 	call	0x17b6	;  0x17b6
     ae4:	a4 cf       	rjmp	.-184    	;  0xa2e
     ae6:	01 11       	cpse	r16, r1
     ae8:	a2 cf       	rjmp	.-188    	;  0xa2e
     aea:	8f 2d       	mov	r24, r15
     aec:	0e 94 a2 04 	call	0x944	;  0x944
     af0:	8f 2d       	mov	r24, r15
     af2:	0e 94 e7 0b 	call	0x17ce	;  0x17ce
     af6:	8f 2d       	mov	r24, r15
     af8:	0e 94 cb 0b 	call	0x1796	;  0x1796
     afc:	98 cf       	rjmp	.-208    	;  0xa2e
     afe:	11 23       	and	r17, r17
     b00:	21 f0       	breq	.+8      	;  0xb0a
     b02:	06 30       	cpi	r16, 0x06	; 6
     b04:	08 f0       	brcs	.+2      	;  0xb08
     b06:	93 cf       	rjmp	.-218    	;  0xa2e
     b08:	e3 cf       	rjmp	.-58     	;  0xad0
     b0a:	05 30       	cpi	r16, 0x05	; 5
     b0c:	08 f0       	brcs	.+2      	;  0xb10
     b0e:	8f cf       	rjmp	.-226    	;  0xa2e
     b10:	8f 2d       	mov	r24, r15
     b12:	0e 94 a2 04 	call	0x944	;  0x944
     b16:	8b cf       	rjmp	.-234    	;  0xa2e
     b18:	00 23       	and	r16, r16
     b1a:	d1 f3       	breq	.-12     	;  0xb10
     b1c:	d9 33       	cpi	r29, 0x39	; 57
     b1e:	49 f4       	brne	.+18     	;  0xb32
     b20:	3f ef       	ldi	r19, 0xFF	; 255
     b22:	87 ee       	ldi	r24, 0xE7	; 231
     b24:	93 e0       	ldi	r25, 0x03	; 3
     b26:	31 50       	subi	r19, 0x01	; 1
     b28:	80 40       	sbci	r24, 0x00	; 0
     b2a:	90 40       	sbci	r25, 0x00	; 0
     b2c:	e1 f7       	brne	.-8      	;  0xb26
     b2e:	00 c0       	rjmp	.+0      	;  0xb30
     b30:	00 00       	nop
     b32:	8d 2f       	mov	r24, r29
     b34:	0e 94 20 04 	call	0x840	;  0x840
     b38:	7a cf       	rjmp	.-268    	;  0xa2e
     b3a:	8c 2f       	mov	r24, r28
     b3c:	86 95       	lsr	r24
     b3e:	86 95       	lsr	r24
     b40:	83 70       	andi	r24, 0x03	; 3
     b42:	69 f0       	breq	.+26     	;  0xb5e
     b44:	81 30       	cpi	r24, 0x01	; 1
     b46:	09 f0       	breq	.+2      	;  0xb4a
     b48:	72 cf       	rjmp	.-284    	;  0xa2e
     b4a:	8d 2f       	mov	r24, r29
     b4c:	9c 2f       	mov	r25, r28
     b4e:	93 70       	andi	r25, 0x03	; 3
     b50:	11 11       	cpse	r17, r1
     b52:	02 c0       	rjmp	.+4      	;  0xb58
     b54:	80 e0       	ldi	r24, 0x00	; 0
     b56:	90 e0       	ldi	r25, 0x00	; 0
     b58:	0e 94 79 1a 	call	0x34f2	;  0x34f2
     b5c:	68 cf       	rjmp	.-304    	;  0xa2e
     b5e:	8d 2f       	mov	r24, r29
     b60:	9c 2f       	mov	r25, r28
     b62:	93 70       	andi	r25, 0x03	; 3
     b64:	11 11       	cpse	r17, r1
     b66:	02 c0       	rjmp	.+4      	;  0xb6c
     b68:	80 e0       	ldi	r24, 0x00	; 0
     b6a:	90 e0       	ldi	r25, 0x00	; 0
     b6c:	0e 94 54 1a 	call	0x34a8	;  0x34a8
     b70:	5e cf       	rjmp	.-324    	;  0xa2e
     b72:	61 2f       	mov	r22, r17
     b74:	8d 2f       	mov	r24, r29
     b76:	0e 94 7f 03 	call	0x6fe	;  0x6fe
     b7a:	59 cf       	rjmp	.-334    	;  0xa2e
     b7c:	8c 2f       	mov	r24, r28
     b7e:	83 70       	andi	r24, 0x03	; 3
     b80:	a1 f5       	brne	.+104    	;  0xbea
     b82:	11 11       	cpse	r17, r1
     b84:	54 cf       	rjmp	.-344    	;  0xa2e
     b86:	4d 2f       	mov	r20, r29
     b88:	42 95       	swap	r20
     b8a:	46 95       	lsr	r20
     b8c:	47 70       	andi	r20, 0x07	; 7
     b8e:	44 0f       	add	r20, r20
     b90:	44 0f       	add	r20, r20
     b92:	2d 2f       	mov	r18, r29
     b94:	2f 70       	andi	r18, 0x0F	; 15
     b96:	30 e0       	ldi	r19, 0x00	; 0
     b98:	04 2e       	mov	r0, r20
     b9a:	02 c0       	rjmp	.+4      	;  0xba0
     b9c:	22 0f       	add	r18, r18
     b9e:	33 1f       	adc	r19, r19
     ba0:	0a 94       	dec	r0
     ba2:	e2 f7       	brpl	.-8      	;  0xb9c
     ba4:	90 e0       	ldi	r25, 0x00	; 0
     ba6:	80 e0       	ldi	r24, 0x00	; 0
     ba8:	d4 ff       	sbrs	r29, 4
     baa:	09 c0       	rjmp	.+18     	;  0xbbe
     bac:	8f e0       	ldi	r24, 0x0F	; 15
     bae:	90 e0       	ldi	r25, 0x00	; 0
     bb0:	02 c0       	rjmp	.+4      	;  0xbb6
     bb2:	88 0f       	add	r24, r24
     bb4:	99 1f       	adc	r25, r25
     bb6:	4a 95       	dec	r20
     bb8:	e2 f7       	brpl	.-8      	;  0xbb2
     bba:	80 95       	com	r24
     bbc:	90 95       	com	r25
     bbe:	c6 95       	lsr	r28
     bc0:	c6 95       	lsr	r28
     bc2:	c3 70       	andi	r28, 0x03	; 3
     bc4:	82 2b       	or	r24, r18
     bc6:	93 2b       	or	r25, r19
     bc8:	c2 30       	cpi	r28, 0x02	; 2
     bca:	49 f0       	breq	.+18     	;  0xbde
     bcc:	58 f4       	brcc	.+22     	;  0xbe4
     bce:	c1 30       	cpi	r28, 0x01	; 1
     bd0:	19 f0       	breq	.+6      	;  0xbd8
     bd2:	0e 94 48 07 	call	0xe90	;  0xe90
     bd6:	2b cf       	rjmp	.-426    	;  0xa2e
     bd8:	0e 94 3f 07 	call	0xe7e	;  0xe7e
     bdc:	28 cf       	rjmp	.-432    	;  0xa2e
     bde:	0e 94 51 07 	call	0xea2	;  0xea2
     be2:	25 cf       	rjmp	.-438    	;  0xa2e
     be4:	0e 94 3c 07 	call	0xe78	;  0xe78
     be8:	22 cf       	rjmp	.-444    	;  0xa2e
     bea:	86 95       	lsr	r24
     bec:	11 23       	and	r17, r17
     bee:	11 f0       	breq	.+4      	;  0xbf4
     bf0:	8c 2f       	mov	r24, r28
     bf2:	81 70       	andi	r24, 0x01	; 1
     bf4:	88 23       	and	r24, r24
     bf6:	09 f4       	brne	.+2      	;  0xbfa
     bf8:	1a cf       	rjmp	.-460    	;  0xa2e
     bfa:	4d 2f       	mov	r20, r29
     bfc:	42 95       	swap	r20
     bfe:	46 95       	lsr	r20
     c00:	47 70       	andi	r20, 0x07	; 7
     c02:	44 0f       	add	r20, r20
     c04:	44 0f       	add	r20, r20
     c06:	2d 2f       	mov	r18, r29
     c08:	2f 70       	andi	r18, 0x0F	; 15
     c0a:	30 e0       	ldi	r19, 0x00	; 0
     c0c:	04 2e       	mov	r0, r20
     c0e:	02 c0       	rjmp	.+4      	;  0xc14
     c10:	22 0f       	add	r18, r18
     c12:	33 1f       	adc	r19, r19
     c14:	0a 94       	dec	r0
     c16:	e2 f7       	brpl	.-8      	;  0xc10
     c18:	90 e0       	ldi	r25, 0x00	; 0
     c1a:	80 e0       	ldi	r24, 0x00	; 0
     c1c:	d4 ff       	sbrs	r29, 4
     c1e:	09 c0       	rjmp	.+18     	;  0xc32
     c20:	8f e0       	ldi	r24, 0x0F	; 15
     c22:	90 e0       	ldi	r25, 0x00	; 0
     c24:	02 c0       	rjmp	.+4      	;  0xc2a
     c26:	88 0f       	add	r24, r24
     c28:	99 1f       	adc	r25, r25
     c2a:	4a 95       	dec	r20
     c2c:	e2 f7       	brpl	.-8      	;  0xc26
     c2e:	80 95       	com	r24
     c30:	90 95       	com	r25
     c32:	c6 95       	lsr	r28
     c34:	c6 95       	lsr	r28
     c36:	c3 70       	andi	r28, 0x03	; 3
     c38:	82 2b       	or	r24, r18
     c3a:	93 2b       	or	r25, r19
     c3c:	c2 30       	cpi	r28, 0x02	; 2
     c3e:	49 f0       	breq	.+18     	;  0xc52
     c40:	58 f4       	brcc	.+22     	;  0xc58
     c42:	c1 30       	cpi	r28, 0x01	; 1
     c44:	19 f0       	breq	.+6      	;  0xc4c
     c46:	0e 94 b0 07 	call	0xf60	;  0xf60
     c4a:	f1 ce       	rjmp	.-542    	;  0xa2e
     c4c:	0e 94 a7 07 	call	0xf4e	;  0xf4e
     c50:	ee ce       	rjmp	.-548    	;  0xa2e
     c52:	0e 94 b9 07 	call	0xf72	;  0xf72
     c56:	eb ce       	rjmp	.-554    	;  0xa2e
     c58:	0e 94 5d 07 	call	0xeba	;  0xeba
     c5c:	e8 ce       	rjmp	.-560    	;  0xa2e
     c5e:	cf 70       	andi	r28, 0x0F	; 15
     c60:	11 23       	and	r17, r17
     c62:	29 f0       	breq	.+10     	;  0xc6e
     c64:	8c 2f       	mov	r24, r28
     c66:	0e 94 75 07 	call	0xeea	;  0xeea
     c6a:	8d 2f       	mov	r24, r29
     c6c:	32 cf       	rjmp	.-412    	;  0xad2
     c6e:	8d 2f       	mov	r24, r29
     c70:	0e 94 a2 04 	call	0x944	;  0x944
     c74:	8c 2f       	mov	r24, r28
     c76:	0e 94 85 07 	call	0xf0a	;  0xf0a
     c7a:	d9 ce       	rjmp	.-590    	;  0xa2e
     c7c:	d2 3f       	cpi	r29, 0xF2	; 242
     c7e:	41 f1       	breq	.+80     	;  0xcd0
     c80:	60 f4       	brcc	.+24     	;  0xc9a
     c82:	d0 3f       	cpi	r29, 0xF0	; 240
     c84:	b9 f0       	breq	.+46     	;  0xcb4
     c86:	d1 3f       	cpi	r29, 0xF1	; 241
     c88:	81 f0       	breq	.+32     	;  0xcaa
     c8a:	11 23       	and	r17, r17
     c8c:	09 f4       	brne	.+2      	;  0xc90
     c8e:	46 c0       	rjmp	.+140    	;  0xd1c
     c90:	01 11       	cpse	r16, r1
     c92:	b3 ce       	rjmp	.-666    	;  0x9fa
     c94:	8c 2f       	mov	r24, r28
     c96:	8f 71       	andi	r24, 0x1F	; 31
     c98:	1f c0       	rjmp	.+62     	;  0xcd8
     c9a:	d3 3f       	cpi	r29, 0xF3	; 243
     c9c:	01 f1       	breq	.+64     	;  0xcde
     c9e:	d4 3f       	cpi	r29, 0xF4	; 244
     ca0:	a1 f7       	brne	.-24     	;  0xc8a
     ca2:	80 91 81 02 	lds	r24, 0x0281	;  0x800281
     ca6:	82 fd       	sbrc	r24, 2
     ca8:	24 c0       	rjmp	.+72     	;  0xcf2
     caa:	8c 2f       	mov	r24, r28
     cac:	8f 71       	andi	r24, 0x1F	; 31
     cae:	11 23       	and	r17, r17
     cb0:	11 f3       	breq	.-60     	;  0xc76
     cb2:	12 c0       	rjmp	.+36     	;  0xcd8
     cb4:	11 23       	and	r17, r17
     cb6:	41 f0       	breq	.+16     	;  0xcc8
     cb8:	05 30       	cpi	r16, 0x05	; 5
     cba:	08 f0       	brcs	.+2      	;  0xcbe
     cbc:	b8 ce       	rjmp	.-656    	;  0xa2e
     cbe:	8c 2f       	mov	r24, r28
     cc0:	8f 71       	andi	r24, 0x1F	; 31
     cc2:	0e 94 97 07 	call	0xf2e	;  0xf2e
     cc6:	b3 ce       	rjmp	.-666    	;  0xa2e
     cc8:	06 30       	cpi	r16, 0x06	; 6
     cca:	08 f0       	brcs	.+2      	;  0xcce
     ccc:	b0 ce       	rjmp	.-672    	;  0xa2e
     cce:	f7 cf       	rjmp	.-18     	;  0xcbe
     cd0:	8c 2f       	mov	r24, r28
     cd2:	8f 71       	andi	r24, 0x1F	; 31
     cd4:	11 11       	cpse	r17, r1
     cd6:	cf cf       	rjmp	.-98     	;  0xc76
     cd8:	0e 94 75 07 	call	0xeea	;  0xeea
     cdc:	a8 ce       	rjmp	.-688    	;  0xa2e
     cde:	11 23       	and	r17, r17
     ce0:	29 f0       	breq	.+10     	;  0xcec
     ce2:	8c 2f       	mov	r24, r28
     ce4:	8f 71       	andi	r24, 0x1F	; 31
     ce6:	0e 94 69 07 	call	0xed2	;  0xed2
     cea:	a1 ce       	rjmp	.-702    	;  0xa2e
     cec:	0e 94 64 07 	call	0xec8	;  0xec8
     cf0:	9e ce       	rjmp	.-708    	;  0xa2e
     cf2:	11 23       	and	r17, r17
     cf4:	49 f0       	breq	.+18     	;  0xd08
     cf6:	cf 71       	andi	r28, 0x1F	; 31
     cf8:	8c 2f       	mov	r24, r28
     cfa:	0e 94 75 07 	call	0xeea	;  0xeea
     cfe:	63 e0       	ldi	r22, 0x03	; 3
     d00:	8c 2f       	mov	r24, r28
     d02:	0e 94 42 0c 	call	0x1884	;  0x1884
     d06:	93 ce       	rjmp	.-730    	;  0xa2e
     d08:	81 e0       	ldi	r24, 0x01	; 1
     d0a:	0e 94 60 0c 	call	0x18c0	;  0x18c0
     d0e:	02 30       	cpi	r16, 0x02	; 2
     d10:	08 f4       	brcc	.+2      	;  0xd14
     d12:	8d ce       	rjmp	.-742    	;  0xa2e
     d14:	82 e0       	ldi	r24, 0x02	; 2
     d16:	0e 94 60 0c 	call	0x18c0	;  0x18c0
     d1a:	89 ce       	rjmp	.-750    	;  0xa2e
     d1c:	00 23       	and	r16, r16
     d1e:	59 f0       	breq	.+22     	;  0xd36
     d20:	d9 33       	cpi	r29, 0x39	; 57
     d22:	09 f0       	breq	.+2      	;  0xd26
     d24:	06 cf       	rjmp	.-500    	;  0xb32
     d26:	ef ef       	ldi	r30, 0xFF	; 255
     d28:	f7 ee       	ldi	r31, 0xE7	; 231
     d2a:	23 e0       	ldi	r18, 0x03	; 3
     d2c:	e1 50       	subi	r30, 0x01	; 1
     d2e:	f0 40       	sbci	r31, 0x00	; 0
     d30:	20 40       	sbci	r18, 0x00	; 0
     d32:	e1 f7       	brne	.-8      	;  0xd2c
     d34:	fc ce       	rjmp	.-520    	;  0xb2e
     d36:	8c 2f       	mov	r24, r28
     d38:	8f 71       	andi	r24, 0x1F	; 31
     d3a:	9d cf       	rjmp	.-198    	;  0xc76
     d3c:	0f 93       	push	r16
     d3e:	1f 93       	push	r17
     d40:	cf 93       	push	r28
     d42:	df 93       	push	r29
     d44:	ec 01       	movw	r28, r24
     d46:	68 81       	ld	r22, Y
     d48:	79 81       	ldd	r23, Y+1	; 0x01
     d4a:	8d 81       	ldd	r24, Y+5	; 0x05
     d4c:	0e 94 78 08 	call	0x10f0	;  0x10f0
     d50:	8c 01       	movw	r16, r24
     d52:	0e 94 c2 07 	call	0xf84	;  0xf84
     d56:	0e 94 3b 07 	call	0xe76	;  0xe76
     d5a:	b8 01       	movw	r22, r16
     d5c:	ce 01       	movw	r24, r28
     d5e:	0e 94 a9 04 	call	0x952	;  0x952
     d62:	df 91       	pop	r29
     d64:	cf 91       	pop	r28
     d66:	1f 91       	pop	r17
     d68:	0f 91       	pop	r16
     d6a:	08 95       	ret
     d6c:	cf 93       	push	r28
     d6e:	df 93       	push	r29
     d70:	ec 01       	movw	r28, r24
     d72:	8c 81       	ldd	r24, Y+4	; 0x04
     d74:	88 23       	and	r24, r24
     d76:	99 f0       	breq	.+38     	;  0xd9e
     d78:	ce 01       	movw	r24, r28
     d7a:	0e 94 a7 02 	call	0x54e	;  0x54e
     d7e:	81 11       	cpse	r24, r1
     d80:	11 c0       	rjmp	.+34     	;  0xda4
     d82:	0e 94 9d 0b 	call	0x173a	;  0x173a
     d86:	88 23       	and	r24, r24
     d88:	51 f0       	breq	.+20     	;  0xd9e
     d8a:	8d 81       	ldd	r24, Y+5	; 0x05
     d8c:	88 23       	and	r24, r24
     d8e:	39 f0       	breq	.+14     	;  0xd9e
     d90:	80 91 81 02 	lds	r24, 0x0281	;  0x800281
     d94:	82 ff       	sbrs	r24, 2
     d96:	03 c0       	rjmp	.+6      	;  0xd9e
     d98:	82 e0       	ldi	r24, 0x02	; 2
     d9a:	0e 94 60 0c 	call	0x18c0	;  0x18c0
     d9e:	df 91       	pop	r29
     da0:	cf 91       	pop	r28
     da2:	08 95       	ret
     da4:	ce 01       	movw	r24, r28
     da6:	0e 94 9e 06 	call	0xd3c	;  0xd3c
     daa:	ce 01       	movw	r24, r28
     dac:	0e 94 70 02 	call	0x4e0	;  0x4e0
     db0:	f6 cf       	rjmp	.-20     	;  0xd9e
     db2:	90 e0       	ldi	r25, 0x00	; 0
     db4:	80 e0       	ldi	r24, 0x00	; 0
     db6:	0e 94 54 1a 	call	0x34a8	;  0x34a8
     dba:	90 e0       	ldi	r25, 0x00	; 0
     dbc:	80 e0       	ldi	r24, 0x00	; 0
     dbe:	0e 94 79 1a 	call	0x34f2	;  0x34f2
     dc2:	0e 94 c4 0b 	call	0x1788	;  0x1788
     dc6:	0e 94 fd 0b 	call	0x17fa	;  0x17fa
     dca:	0e 94 fd 15 	call	0x2bfa	;  0x2bfa
     dce:	0e 94 e1 15 	call	0x2bc2	;  0x2bc2
     dd2:	08 95       	ret
     dd4:	0e 94 8c 0b 	call	0x1718	;  0x1718
     dd8:	0e 94 d9 06 	call	0xdb2	;  0xdb2
     ddc:	08 95       	ret
     dde:	0e 94 b4 0b 	call	0x1768	;  0x1768
     de2:	0e 94 ea 06 	call	0xdd4	;  0xdd4
     de6:	08 95       	ret
     de8:	92 95       	swap	r25
     dea:	9f 70       	andi	r25, 0x0F	; 15
     dec:	96 30       	cpi	r25, 0x06	; 6
     dee:	91 f0       	breq	.+36     	;  0xe14
     df0:	58 f4       	brcc	.+22     	;  0xe08
     df2:	92 5f       	subi	r25, 0xF2	; 242
     df4:	9f 70       	andi	r25, 0x0F	; 15
     df6:	92 30       	cpi	r25, 0x02	; 2
     df8:	58 f4       	brcc	.+22     	;  0xe10
     dfa:	80 3f       	cpi	r24, 0xF0	; 240
     dfc:	19 f0       	breq	.+6      	;  0xe04
     dfe:	30 f4       	brcc	.+12     	;  0xe0c
     e00:	88 3e       	cpi	r24, 0xE8	; 232
     e02:	30 f4       	brcc	.+12     	;  0xe10
     e04:	81 e0       	ldi	r24, 0x01	; 1
     e06:	08 95       	ret
     e08:	9a 5f       	subi	r25, 0xFA	; 250
     e0a:	f4 cf       	rjmp	.-24     	;  0xdf4
     e0c:	84 3f       	cpi	r24, 0xF4	; 244
     e0e:	d1 f3       	breq	.-12     	;  0xe04
     e10:	80 e0       	ldi	r24, 0x00	; 0
     e12:	08 95       	ret
     e14:	88 3e       	cpi	r24, 0xE8	; 232
     e16:	b0 f3       	brcs	.-20     	;  0xe04
     e18:	81 3f       	cpi	r24, 0xF1	; 241
     e1a:	d1 f7       	brne	.-12     	;  0xe10
     e1c:	f3 cf       	rjmp	.-26     	;  0xe04
     e1e:	fc 01       	movw	r30, r24
     e20:	24 81       	ldd	r18, Z+4	; 0x04
     e22:	22 23       	and	r18, r18
     e24:	39 f0       	breq	.+14     	;  0xe34
     e26:	80 81       	ld	r24, Z
     e28:	91 81       	ldd	r25, Z+1	; 0x01
     e2a:	0e 94 6d 08 	call	0x10da	;  0x10da
     e2e:	0e 94 f4 06 	call	0xde8	;  0xde8
     e32:	08 95       	ret
     e34:	80 e0       	ldi	r24, 0x00	; 0
     e36:	08 95       	ret
     e38:	a6 e0       	ldi	r26, 0x06	; 6
     e3a:	b0 e0       	ldi	r27, 0x00	; 0
     e3c:	e2 e2       	ldi	r30, 0x22	; 34
     e3e:	f7 e0       	ldi	r31, 0x07	; 7
     e40:	0c 94 c2 24 	jmp	0x4984	;  0x4984
     e44:	26 96       	adiw	r28, 0x06	; 6
     e46:	e2 e0       	ldi	r30, 0x02	; 2
     e48:	0c 94 de 24 	jmp	0x49bc	;  0x49bc
     e4c:	a7 e0       	ldi	r26, 0x07	; 7
     e4e:	b0 e0       	ldi	r27, 0x00	; 0
     e50:	ec e2       	ldi	r30, 0x2C	; 44
     e52:	f7 e0       	ldi	r31, 0x07	; 7
     e54:	0c 94 c2 24 	jmp	0x4984	;  0x4984
     e58:	27 96       	adiw	r28, 0x07	; 7
     e5a:	e2 e0       	ldi	r30, 0x02	; 2
     e5c:	0c 94 de 24 	jmp	0x49bc	;  0x49bc
     e60:	08 95       	ret
     e62:	0e 94 30 07 	call	0xe60	;  0xe60
     e66:	08 95       	ret
     e68:	0e 94 31 07 	call	0xe62	;  0xe62
     e6c:	90 93 c9 01 	sts	0x01C9, r25	;  0x8001c9
     e70:	80 93 c8 01 	sts	0x01C8, r24	;  0x8001c8
     e74:	08 95       	ret
     e76:	08 95       	ret
     e78:	0e 94 34 07 	call	0xe68	;  0xe68
     e7c:	08 95       	ret
     e7e:	20 91 c8 01 	lds	r18, 0x01C8	;  0x8001c8
     e82:	30 91 c9 01 	lds	r19, 0x01C9	;  0x8001c9
     e86:	82 2b       	or	r24, r18
     e88:	93 2b       	or	r25, r19
     e8a:	0e 94 34 07 	call	0xe68	;  0xe68
     e8e:	08 95       	ret
     e90:	20 91 c8 01 	lds	r18, 0x01C8	;  0x8001c8
     e94:	30 91 c9 01 	lds	r19, 0x01C9	;  0x8001c9
     e98:	82 23       	and	r24, r18
     e9a:	93 23       	and	r25, r19
     e9c:	0e 94 34 07 	call	0xe68	;  0xe68
     ea0:	08 95       	ret
     ea2:	20 91 c8 01 	lds	r18, 0x01C8	;  0x8001c8
     ea6:	30 91 c9 01 	lds	r19, 0x01C9	;  0x8001c9
     eaa:	82 27       	eor	r24, r18
     eac:	93 27       	eor	r25, r19
     eae:	0e 94 34 07 	call	0xe68	;  0xe68
     eb2:	08 95       	ret
     eb4:	0e 94 e2 01 	call	0x3c4	;  0x3c4
     eb8:	08 95       	ret
     eba:	0e 94 5a 07 	call	0xeb4	;  0xeb4
     ebe:	90 93 c7 01 	sts	0x01C7, r25	;  0x8001c7
     ec2:	80 93 c6 01 	sts	0x01C6, r24	;  0x8001c6
     ec6:	08 95       	ret
     ec8:	90 e0       	ldi	r25, 0x00	; 0
     eca:	80 e0       	ldi	r24, 0x00	; 0
     ecc:	0e 94 5d 07 	call	0xeba	;  0xeba
     ed0:	08 95       	ret
     ed2:	21 e0       	ldi	r18, 0x01	; 1
     ed4:	30 e0       	ldi	r19, 0x00	; 0
     ed6:	a9 01       	movw	r20, r18
     ed8:	02 c0       	rjmp	.+4      	;  0xede
     eda:	44 0f       	add	r20, r20
     edc:	55 1f       	adc	r21, r21
     ede:	8a 95       	dec	r24
     ee0:	e2 f7       	brpl	.-8      	;  0xeda
     ee2:	ca 01       	movw	r24, r20
     ee4:	0e 94 5d 07 	call	0xeba	;  0xeba
     ee8:	08 95       	ret
     eea:	21 e0       	ldi	r18, 0x01	; 1
     eec:	30 e0       	ldi	r19, 0x00	; 0
     eee:	02 c0       	rjmp	.+4      	;  0xef4
     ef0:	22 0f       	add	r18, r18
     ef2:	33 1f       	adc	r19, r19
     ef4:	8a 95       	dec	r24
     ef6:	e2 f7       	brpl	.-8      	;  0xef0
     ef8:	80 91 c6 01 	lds	r24, 0x01C6	;  0x8001c6
     efc:	90 91 c7 01 	lds	r25, 0x01C7	;  0x8001c7
     f00:	82 2b       	or	r24, r18
     f02:	93 2b       	or	r25, r19
     f04:	0e 94 5d 07 	call	0xeba	;  0xeba
     f08:	08 95       	ret
     f0a:	21 e0       	ldi	r18, 0x01	; 1
     f0c:	30 e0       	ldi	r19, 0x00	; 0
     f0e:	02 c0       	rjmp	.+4      	;  0xf14
     f10:	22 0f       	add	r18, r18
     f12:	33 1f       	adc	r19, r19
     f14:	8a 95       	dec	r24
     f16:	e2 f7       	brpl	.-8      	;  0xf10
     f18:	20 95       	com	r18
     f1a:	30 95       	com	r19
     f1c:	80 91 c6 01 	lds	r24, 0x01C6	;  0x8001c6
     f20:	90 91 c7 01 	lds	r25, 0x01C7	;  0x8001c7
     f24:	82 23       	and	r24, r18
     f26:	93 23       	and	r25, r19
     f28:	0e 94 5d 07 	call	0xeba	;  0xeba
     f2c:	08 95       	ret
     f2e:	21 e0       	ldi	r18, 0x01	; 1
     f30:	30 e0       	ldi	r19, 0x00	; 0
     f32:	02 c0       	rjmp	.+4      	;  0xf38
     f34:	22 0f       	add	r18, r18
     f36:	33 1f       	adc	r19, r19
     f38:	8a 95       	dec	r24
     f3a:	e2 f7       	brpl	.-8      	;  0xf34
     f3c:	80 91 c6 01 	lds	r24, 0x01C6	;  0x8001c6
     f40:	90 91 c7 01 	lds	r25, 0x01C7	;  0x8001c7
     f44:	82 27       	eor	r24, r18
     f46:	93 27       	eor	r25, r19
     f48:	0e 94 5d 07 	call	0xeba	;  0xeba
     f4c:	08 95       	ret
     f4e:	20 91 c6 01 	lds	r18, 0x01C6	;  0x8001c6
     f52:	30 91 c7 01 	lds	r19, 0x01C7	;  0x8001c7
     f56:	82 2b       	or	r24, r18
     f58:	93 2b       	or	r25, r19
     f5a:	0e 94 5d 07 	call	0xeba	;  0xeba
     f5e:	08 95       	ret
     f60:	20 91 c6 01 	lds	r18, 0x01C6	;  0x8001c6
     f64:	30 91 c7 01 	lds	r19, 0x01C7	;  0x8001c7
     f68:	82 23       	and	r24, r18
     f6a:	93 23       	and	r25, r19
     f6c:	0e 94 5d 07 	call	0xeba	;  0xeba
     f70:	08 95       	ret
     f72:	20 91 c6 01 	lds	r18, 0x01C6	;  0x8001c6
     f76:	30 91 c7 01 	lds	r19, 0x01C7	;  0x8001c7
     f7a:	82 27       	eor	r24, r18
     f7c:	93 27       	eor	r25, r19
     f7e:	0e 94 5d 07 	call	0xeba	;  0xeba
     f82:	08 95       	ret
     f84:	08 95       	ret
     f86:	26 2f       	mov	r18, r22
     f88:	27 70       	andi	r18, 0x07	; 7
     f8a:	91 e0       	ldi	r25, 0x01	; 1
     f8c:	01 c0       	rjmp	.+2      	;  0xf90
     f8e:	99 0f       	add	r25, r25
     f90:	2a 95       	dec	r18
     f92:	ea f7       	brpl	.-6      	;  0xf8e
     f94:	23 e0       	ldi	r18, 0x03	; 3
     f96:	76 95       	lsr	r23
     f98:	67 95       	ror	r22
     f9a:	2a 95       	dec	r18
     f9c:	e1 f7       	brne	.-8      	;  0xf96
     f9e:	66 0f       	add	r22, r22
     fa0:	77 1f       	adc	r23, r23
     fa2:	66 0f       	add	r22, r22
     fa4:	77 1f       	adc	r23, r23
     fa6:	fa 01       	movw	r30, r20
     fa8:	e6 0f       	add	r30, r22
     faa:	f7 1f       	adc	r31, r23
     fac:	50 e0       	ldi	r21, 0x00	; 0
     fae:	40 e0       	ldi	r20, 0x00	; 0
     fb0:	68 2f       	mov	r22, r24
     fb2:	70 e0       	ldi	r23, 0x00	; 0
     fb4:	81 91       	ld	r24, Z+
     fb6:	df 01       	movw	r26, r30
     fb8:	11 97       	sbiw	r26, 0x01	; 1
     fba:	9b 01       	movw	r18, r22
     fbc:	04 2e       	mov	r0, r20
     fbe:	02 c0       	rjmp	.+4      	;  0xfc4
     fc0:	36 95       	lsr	r19
     fc2:	27 95       	ror	r18
     fc4:	0a 94       	dec	r0
     fc6:	e2 f7       	brpl	.-8      	;  0xfc0
     fc8:	21 70       	andi	r18, 0x01	; 1
     fca:	21 95       	neg	r18
     fcc:	28 27       	eor	r18, r24
     fce:	29 23       	and	r18, r25
     fd0:	28 27       	eor	r18, r24
     fd2:	2c 93       	st	X, r18
     fd4:	4f 5f       	subi	r20, 0xFF	; 255
     fd6:	5f 4f       	sbci	r21, 0xFF	; 255
     fd8:	44 30       	cpi	r20, 0x04	; 4
     fda:	51 05       	cpc	r21, r1
     fdc:	59 f7       	brne	.-42     	;  0xfb4
     fde:	08 95       	ret
     fe0:	a8 2f       	mov	r26, r24
     fe2:	a7 70       	andi	r26, 0x07	; 7
     fe4:	23 e0       	ldi	r18, 0x03	; 3
     fe6:	96 95       	lsr	r25
     fe8:	87 95       	ror	r24
     fea:	2a 95       	dec	r18
     fec:	e1 f7       	brne	.-8      	;  0xfe6
     fee:	88 0f       	add	r24, r24
     ff0:	99 1f       	adc	r25, r25
     ff2:	88 0f       	add	r24, r24
     ff4:	99 1f       	adc	r25, r25
     ff6:	fb 01       	movw	r30, r22
     ff8:	e8 0f       	add	r30, r24
     ffa:	f9 1f       	adc	r31, r25
     ffc:	50 e0       	ldi	r21, 0x00	; 0
     ffe:	40 e0       	ldi	r20, 0x00	; 0
    1000:	80 e0       	ldi	r24, 0x00	; 0
    1002:	21 91       	ld	r18, Z+
    1004:	30 e0       	ldi	r19, 0x00	; 0
    1006:	0a 2e       	mov	r0, r26
    1008:	02 c0       	rjmp	.+4      	;  0x100e
    100a:	36 95       	lsr	r19
    100c:	27 95       	ror	r18
    100e:	0a 94       	dec	r0
    1010:	e2 f7       	brpl	.-8      	;  0x100a
    1012:	21 70       	andi	r18, 0x01	; 1
    1014:	33 27       	eor	r19, r19
    1016:	04 2e       	mov	r0, r20
    1018:	01 c0       	rjmp	.+2      	;  0x101c
    101a:	22 0f       	add	r18, r18
    101c:	0a 94       	dec	r0
    101e:	ea f7       	brpl	.-6      	;  0x101a
    1020:	82 2b       	or	r24, r18
    1022:	4f 5f       	subi	r20, 0xFF	; 255
    1024:	5f 4f       	sbci	r21, 0xFF	; 255
    1026:	44 30       	cpi	r20, 0x04	; 4
    1028:	51 05       	cpc	r21, r1
    102a:	59 f7       	brne	.-42     	;  0x1002
    102c:	08 95       	ret
    102e:	26 2f       	mov	r18, r22
    1030:	98 30       	cpi	r25, 0x08	; 8
    1032:	70 f4       	brcc	.+28     	;  0x1050
    1034:	85 30       	cpi	r24, 0x05	; 5
    1036:	60 f4       	brcc	.+24     	;  0x1050
    1038:	68 2f       	mov	r22, r24
    103a:	70 e0       	ldi	r23, 0x00	; 0
    103c:	85 e0       	ldi	r24, 0x05	; 5
    103e:	98 9f       	mul	r25, r24
    1040:	60 0d       	add	r22, r0
    1042:	71 1d       	adc	r23, r1
    1044:	11 24       	eor	r1, r1
    1046:	42 eb       	ldi	r20, 0xB2	; 178
    1048:	51 e0       	ldi	r21, 0x01	; 1
    104a:	82 2f       	mov	r24, r18
    104c:	0e 94 c3 07 	call	0xf86	;  0xf86
    1050:	08 95       	ret
    1052:	29 2f       	mov	r18, r25
    1054:	98 30       	cpi	r25, 0x08	; 8
    1056:	68 f4       	brcc	.+26     	;  0x1072
    1058:	85 30       	cpi	r24, 0x05	; 5
    105a:	58 f4       	brcc	.+22     	;  0x1072
    105c:	90 e0       	ldi	r25, 0x00	; 0
    105e:	62 eb       	ldi	r22, 0xB2	; 178
    1060:	71 e0       	ldi	r23, 0x01	; 1
    1062:	35 e0       	ldi	r19, 0x05	; 5
    1064:	23 9f       	mul	r18, r19
    1066:	80 0d       	add	r24, r0
    1068:	91 1d       	adc	r25, r1
    106a:	11 24       	eor	r1, r1
    106c:	0e 94 f0 07 	call	0xfe0	;  0xfe0
    1070:	08 95       	ret
    1072:	80 e0       	ldi	r24, 0x00	; 0
    1074:	08 95       	ret
    1076:	b0 e0       	ldi	r27, 0x00	; 0
    1078:	a0 e0       	ldi	r26, 0x00	; 0
    107a:	e1 e4       	ldi	r30, 0x41	; 65
    107c:	f8 e0       	ldi	r31, 0x08	; 8
    107e:	0c 94 bb 24 	jmp	0x4976	;  0x4976
    1082:	7c 01       	movw	r14, r24
    1084:	00 91 c6 01 	lds	r16, 0x01C6	;  0x8001c6
    1088:	10 91 c7 01 	lds	r17, 0x01C7	;  0x8001c7
    108c:	80 91 c8 01 	lds	r24, 0x01C8	;  0x8001c8
    1090:	90 91 c9 01 	lds	r25, 0x01C9	;  0x8001c9
    1094:	08 2b       	or	r16, r24
    1096:	19 2b       	or	r17, r25
    1098:	cf e0       	ldi	r28, 0x0F	; 15
    109a:	d0 e0       	ldi	r29, 0x00	; 0
    109c:	cc 24       	eor	r12, r12
    109e:	c3 94       	inc	r12
    10a0:	d1 2c       	mov	r13, r1
    10a2:	bc 2e       	mov	r11, r28
    10a4:	c6 01       	movw	r24, r12
    10a6:	0c 2e       	mov	r0, r28
    10a8:	02 c0       	rjmp	.+4      	;  0x10ae
    10aa:	88 0f       	add	r24, r24
    10ac:	99 1f       	adc	r25, r25
    10ae:	0a 94       	dec	r0
    10b0:	e2 f7       	brpl	.-8      	;  0x10aa
    10b2:	80 23       	and	r24, r16
    10b4:	91 23       	and	r25, r17
    10b6:	89 2b       	or	r24, r25
    10b8:	49 f4       	brne	.+18     	;  0x10cc
    10ba:	21 97       	sbiw	r28, 0x01	; 1
    10bc:	90 f7       	brcc	.-28     	;  0x10a2
    10be:	b1 2c       	mov	r11, r1
    10c0:	8b 2d       	mov	r24, r11
    10c2:	cd b7       	in	r28, 0x3d	; 61
    10c4:	de b7       	in	r29, 0x3e	; 62
    10c6:	e9 e0       	ldi	r30, 0x09	; 9
    10c8:	0c 94 d7 24 	jmp	0x49ae	;  0x49ae
    10cc:	b7 01       	movw	r22, r14
    10ce:	8c 2f       	mov	r24, r28
    10d0:	0e 94 5d 0f 	call	0x1eba	;  0x1eba
    10d4:	01 97       	sbiw	r24, 0x01	; 1
    10d6:	89 f3       	breq	.-30     	;  0x10ba
    10d8:	f3 cf       	rjmp	.-26     	;  0x10c0
    10da:	cf 93       	push	r28
    10dc:	df 93       	push	r29
    10de:	ec 01       	movw	r28, r24
    10e0:	0e 94 3b 08 	call	0x1076	;  0x1076
    10e4:	be 01       	movw	r22, r28
    10e6:	0e 94 5d 0f 	call	0x1eba	;  0x1eba
    10ea:	df 91       	pop	r29
    10ec:	cf 91       	pop	r28
    10ee:	08 95       	ret
    10f0:	1f 93       	push	r17
    10f2:	cf 93       	push	r28
    10f4:	df 93       	push	r29
    10f6:	eb 01       	movw	r28, r22
    10f8:	90 91 b1 01 	lds	r25, 0x01B1	;  0x8001b1
    10fc:	99 23       	and	r25, r25
    10fe:	39 f0       	breq	.+14     	;  0x110e
    1100:	cb 01       	movw	r24, r22
    1102:	0e 94 6d 08 	call	0x10da	;  0x10da
    1106:	df 91       	pop	r29
    1108:	cf 91       	pop	r28
    110a:	1f 91       	pop	r17
    110c:	08 95       	ret
    110e:	88 23       	and	r24, r24
    1110:	69 f0       	breq	.+26     	;  0x112c
    1112:	cb 01       	movw	r24, r22
    1114:	0e 94 3b 08 	call	0x1076	;  0x1076
    1118:	18 2f       	mov	r17, r24
    111a:	68 2f       	mov	r22, r24
    111c:	ce 01       	movw	r24, r28
    111e:	0e 94 17 08 	call	0x102e	;  0x102e
    1122:	be 01       	movw	r22, r28
    1124:	81 2f       	mov	r24, r17
    1126:	0e 94 5d 0f 	call	0x1eba	;  0x1eba
    112a:	ed cf       	rjmp	.-38     	;  0x1106
    112c:	cb 01       	movw	r24, r22
    112e:	0e 94 29 08 	call	0x1052	;  0x1052
    1132:	18 2f       	mov	r17, r24
    1134:	f6 cf       	rjmp	.-20     	;  0x1122
    1136:	e1 e0       	ldi	r30, 0x01	; 1
    1138:	f0 e0       	ldi	r31, 0x00	; 0
    113a:	df 01       	movw	r26, r30
    113c:	02 c0       	rjmp	.+4      	;  0x1142
    113e:	aa 0f       	add	r26, r26
    1140:	bb 1f       	adc	r27, r27
    1142:	6a 95       	dec	r22
    1144:	e2 f7       	brpl	.-8      	;  0x113e
    1146:	bd 01       	movw	r22, r26
    1148:	df 01       	movw	r26, r30
    114a:	02 c0       	rjmp	.+4      	;  0x1150
    114c:	aa 0f       	add	r26, r26
    114e:	bb 1f       	adc	r27, r27
    1150:	4a 95       	dec	r20
    1152:	e2 f7       	brpl	.-8      	;  0x114c
    1154:	ad 01       	movw	r20, r26
    1156:	46 2b       	or	r20, r22
    1158:	57 2b       	or	r21, r23
    115a:	02 c0       	rjmp	.+4      	;  0x1160
    115c:	ee 0f       	add	r30, r30
    115e:	ff 1f       	adc	r31, r31
    1160:	2a 95       	dec	r18
    1162:	e2 f7       	brpl	.-8      	;  0x115c
    1164:	9a 01       	movw	r18, r20
    1166:	28 23       	and	r18, r24
    1168:	39 23       	and	r19, r25
    116a:	24 17       	cp	r18, r20
    116c:	35 07       	cpc	r19, r21
    116e:	19 f4       	brne	.+6      	;  0x1176
    1170:	8e 2b       	or	r24, r30
    1172:	9f 2b       	or	r25, r31
    1174:	08 95       	ret
    1176:	e0 95       	com	r30
    1178:	f0 95       	com	r31
    117a:	8e 23       	and	r24, r30
    117c:	9f 23       	and	r25, r31
    117e:	08 95       	ret
    1180:	1f 93       	push	r17
    1182:	cf 93       	push	r28
    1184:	df 93       	push	r29
    1186:	c0 91 ca 01 	lds	r28, 0x01CA	;  0x8001ca
    118a:	17 e0       	ldi	r17, 0x07	; 7
    118c:	80 91 cb 01 	lds	r24, 0x01CB	;  0x8001cb
    1190:	8c 13       	cpse	r24, r28
    1192:	04 c0       	rjmp	.+8      	;  0x119c
    1194:	df 91       	pop	r29
    1196:	cf 91       	pop	r28
    1198:	1f 91       	pop	r17
    119a:	08 95       	ret
    119c:	d0 e0       	ldi	r29, 0x00	; 0
    119e:	1c 9f       	mul	r17, r28
    11a0:	f0 01       	movw	r30, r0
    11a2:	1d 9f       	mul	r17, r29
    11a4:	f0 0d       	add	r31, r0
    11a6:	11 24       	eor	r1, r1
    11a8:	e4 53       	subi	r30, 0x34	; 52
    11aa:	fe 4f       	sbci	r31, 0xFE	; 254
    11ac:	20 81       	ld	r18, Z
    11ae:	31 81       	ldd	r19, Z+1	; 0x01
    11b0:	42 81       	ldd	r20, Z+2	; 0x02
    11b2:	53 81       	ldd	r21, Z+3	; 0x03
    11b4:	64 81       	ldd	r22, Z+4	; 0x04
    11b6:	75 81       	ldd	r23, Z+5	; 0x05
    11b8:	86 81       	ldd	r24, Z+6	; 0x06
    11ba:	0e 94 26 07 	call	0xe4c	;  0xe4c
    11be:	21 96       	adiw	r28, 0x01	; 1
    11c0:	c7 70       	andi	r28, 0x07	; 7
    11c2:	e4 cf       	rjmp	.-56     	;  0x118c
    11c4:	20 91 04 02 	lds	r18, 0x0204	;  0x800204
    11c8:	30 91 05 02 	lds	r19, 0x0205	;  0x800205
    11cc:	40 91 06 02 	lds	r20, 0x0206	;  0x800206
    11d0:	50 91 07 02 	lds	r21, 0x0207	;  0x800207
    11d4:	60 91 08 02 	lds	r22, 0x0208	;  0x800208
    11d8:	70 91 09 02 	lds	r23, 0x0209	;  0x800209
    11dc:	80 91 0a 02 	lds	r24, 0x020A	;  0x80020a
    11e0:	0e 94 26 07 	call	0xe4c	;  0xe4c
    11e4:	08 95       	ret
    11e6:	cf 93       	push	r28
    11e8:	df 93       	push	r29
    11ea:	80 91 0a 02 	lds	r24, 0x020A	;  0x80020a
    11ee:	80 7f       	andi	r24, 0xF0	; 240
    11f0:	09 f0       	breq	.+2      	;  0x11f4
    11f2:	4d c0       	rjmp	.+154    	;  0x128e
    11f4:	80 91 09 02 	lds	r24, 0x0209	;  0x800209
    11f8:	88 23       	and	r24, r24
    11fa:	09 f4       	brne	.+2      	;  0x11fe
    11fc:	48 c0       	rjmp	.+144    	;  0x128e
    11fe:	e0 91 ca 01 	lds	r30, 0x01CA	;  0x8001ca
    1202:	50 91 cb 01 	lds	r21, 0x01CB	;  0x8001cb
    1206:	c0 91 05 02 	lds	r28, 0x0205	;  0x800205
    120a:	d0 91 04 02 	lds	r29, 0x0204	;  0x800204
    120e:	60 91 06 02 	lds	r22, 0x0206	;  0x800206
    1212:	70 91 07 02 	lds	r23, 0x0207	;  0x800207
    1216:	47 e0       	ldi	r20, 0x07	; 7
    1218:	5e 17       	cp	r21, r30
    121a:	c9 f1       	breq	.+114    	;  0x128e
    121c:	8e 2f       	mov	r24, r30
    121e:	90 e0       	ldi	r25, 0x00	; 0
    1220:	e4 9f       	mul	r30, r20
    1222:	f0 01       	movw	r30, r0
    1224:	11 24       	eor	r1, r1
    1226:	e4 53       	subi	r30, 0x34	; 52
    1228:	fe 4f       	sbci	r31, 0xFE	; 254
    122a:	24 81       	ldd	r18, Z+4	; 0x04
    122c:	22 23       	and	r18, r18
    122e:	91 f1       	breq	.+100    	;  0x1294
    1230:	48 9f       	mul	r20, r24
    1232:	f0 01       	movw	r30, r0
    1234:	49 9f       	mul	r20, r25
    1236:	f0 0d       	add	r31, r0
    1238:	11 24       	eor	r1, r1
    123a:	df 01       	movw	r26, r30
    123c:	a4 53       	subi	r26, 0x34	; 52
    123e:	be 4f       	sbci	r27, 0xFE	; 254
    1240:	11 96       	adiw	r26, 0x01	; 1
    1242:	2c 91       	ld	r18, X
    1244:	11 97       	sbiw	r26, 0x01	; 1
    1246:	2c 13       	cpse	r18, r28
    1248:	25 c0       	rjmp	.+74     	;  0x1294
    124a:	2c 91       	ld	r18, X
    124c:	2d 13       	cpse	r18, r29
    124e:	22 c0       	rjmp	.+68     	;  0x1294
    1250:	15 96       	adiw	r26, 0x05	; 5
    1252:	2c 91       	ld	r18, X
    1254:	15 97       	sbiw	r26, 0x05	; 5
    1256:	21 11       	cpse	r18, r1
    1258:	1d c0       	rjmp	.+58     	;  0x1294
    125a:	12 96       	adiw	r26, 0x02	; 2
    125c:	2d 91       	ld	r18, X+
    125e:	3c 91       	ld	r19, X
    1260:	26 1b       	sub	r18, r22
    1262:	37 0b       	sbc	r19, r23
    1264:	28 3c       	cpi	r18, 0xC8	; 200
    1266:	31 05       	cpc	r19, r1
    1268:	a8 f4       	brcc	.+42     	;  0x1294
    126a:	80 91 0a 02 	lds	r24, 0x020A	;  0x80020a
    126e:	8f 70       	andi	r24, 0x0F	; 15
    1270:	80 61       	ori	r24, 0x10	; 16
    1272:	80 93 0a 02 	sts	0x020A, r24	;  0x80020a
    1276:	ee 52       	subi	r30, 0x2E	; 46
    1278:	fe 4f       	sbci	r31, 0xFE	; 254
    127a:	80 81       	ld	r24, Z
    127c:	8f 70       	andi	r24, 0x0F	; 15
    127e:	80 61       	ori	r24, 0x10	; 16
    1280:	80 83       	st	Z, r24
    1282:	84 e0       	ldi	r24, 0x04	; 4
    1284:	92 e0       	ldi	r25, 0x02	; 2
    1286:	0e 94 b6 06 	call	0xd6c	;  0xd6c
    128a:	0e 94 c0 08 	call	0x1180	;  0x1180
    128e:	df 91       	pop	r29
    1290:	cf 91       	pop	r28
    1292:	08 95       	ret
    1294:	fc 01       	movw	r30, r24
    1296:	31 96       	adiw	r30, 0x01	; 1
    1298:	e7 70       	andi	r30, 0x07	; 7
    129a:	be cf       	rjmp	.-132    	;  0x1218
    129c:	48 2f       	mov	r20, r24
    129e:	20 91 ca 01 	lds	r18, 0x01CA	;  0x8001ca
    12a2:	90 91 cb 01 	lds	r25, 0x01CB	;  0x8001cb
    12a6:	57 e0       	ldi	r21, 0x07	; 7
    12a8:	29 13       	cpse	r18, r25
    12aa:	02 c0       	rjmp	.+4      	;  0x12b0
    12ac:	80 e0       	ldi	r24, 0x00	; 0
    12ae:	08 95       	ret
    12b0:	30 e0       	ldi	r19, 0x00	; 0
    12b2:	52 9f       	mul	r21, r18
    12b4:	f0 01       	movw	r30, r0
    12b6:	53 9f       	mul	r21, r19
    12b8:	f0 0d       	add	r31, r0
    12ba:	11 24       	eor	r1, r1
    12bc:	e4 53       	subi	r30, 0x34	; 52
    12be:	fe 4f       	sbci	r31, 0xFE	; 254
    12c0:	81 81       	ldd	r24, Z+1	; 0x01
    12c2:	68 13       	cpse	r22, r24
    12c4:	06 c0       	rjmp	.+12     	;  0x12d2
    12c6:	80 81       	ld	r24, Z
    12c8:	48 13       	cpse	r20, r24
    12ca:	03 c0       	rjmp	.+6      	;  0x12d2
    12cc:	85 81       	ldd	r24, Z+5	; 0x05
    12ce:	81 11       	cpse	r24, r1
    12d0:	ee cf       	rjmp	.-36     	;  0x12ae
    12d2:	2f 5f       	subi	r18, 0xFF	; 255
    12d4:	3f 4f       	sbci	r19, 0xFF	; 255
    12d6:	27 70       	andi	r18, 0x07	; 7
    12d8:	e7 cf       	rjmp	.-50     	;  0x12a8
    12da:	a4 e1       	ldi	r26, 0x14	; 20
    12dc:	b0 e0       	ldi	r27, 0x00	; 0
    12de:	e3 e7       	ldi	r30, 0x73	; 115
    12e0:	f9 e0       	ldi	r31, 0x09	; 9
    12e2:	0c 94 b8 24 	jmp	0x4970	;  0x4970
    12e6:	8c 01       	movw	r16, r24
    12e8:	86 e0       	ldi	r24, 0x06	; 6
    12ea:	f8 01       	movw	r30, r16
    12ec:	de 01       	movw	r26, r28
    12ee:	1f 96       	adiw	r26, 0x0f	; 15
    12f0:	01 90       	ld	r0, Z+
    12f2:	0d 92       	st	X+, r0
    12f4:	8a 95       	dec	r24
    12f6:	e1 f7       	brne	.-8      	;  0x12f0
    12f8:	f8 01       	movw	r30, r16
    12fa:	84 81       	ldd	r24, Z+4	; 0x04
    12fc:	e5 80       	ldd	r14, Z+5	; 0x05
    12fe:	94 e0       	ldi	r25, 0x04	; 4
    1300:	a9 2e       	mov	r10, r25
    1302:	92 e0       	ldi	r25, 0x02	; 2
    1304:	b9 2e       	mov	r11, r25
    1306:	90 91 08 02 	lds	r25, 0x0208	;  0x800208
    130a:	91 11       	cpse	r25, r1
    130c:	1f c0       	rjmp	.+62     	;  0x134c
    130e:	88 23       	and	r24, r24
    1310:	d1 f0       	breq	.+52     	;  0x1346
    1312:	ee 20       	and	r14, r14
    1314:	a9 f0       	breq	.+42     	;  0x1340
    1316:	c8 01       	movw	r24, r16
    1318:	0e 94 0f 07 	call	0xe1e	;  0xe1e
    131c:	f8 2e       	mov	r15, r24
    131e:	88 23       	and	r24, r24
    1320:	79 f0       	breq	.+30     	;  0x1340
    1322:	87 e0       	ldi	r24, 0x07	; 7
    1324:	f8 01       	movw	r30, r16
    1326:	d5 01       	movw	r26, r10
    1328:	01 90       	ld	r0, Z+
    132a:	0d 92       	st	X+, r0
    132c:	8a 95       	dec	r24
    132e:	e1 f7       	brne	.-8      	;  0x1328
    1330:	c5 01       	movw	r24, r10
    1332:	0e 94 76 03 	call	0x6ec	;  0x6ec
    1336:	0e 94 f3 08 	call	0x11e6	;  0x11e6
    133a:	0e 94 e2 08 	call	0x11c4	;  0x11c4
    133e:	5f c0       	rjmp	.+190    	;  0x13fe
    1340:	c8 01       	movw	r24, r16
    1342:	0e 94 b6 06 	call	0xd6c	;  0xd6c
    1346:	ff 24       	eor	r15, r15
    1348:	f3 94       	inc	r15
    134a:	59 c0       	rjmp	.+178    	;  0x13fe
    134c:	c0 80       	ld	r12, Z
    134e:	d1 80       	ldd	r13, Z+1	; 0x01
    1350:	82 80       	ldd	r8, Z+2	; 0x02
    1352:	93 80       	ldd	r9, Z+3	; 0x03
    1354:	f0 90 09 02 	lds	r15, 0x0209	;  0x800209
    1358:	20 91 06 02 	lds	r18, 0x0206	;  0x800206
    135c:	30 91 07 02 	lds	r19, 0x0207	;  0x800207
    1360:	a4 01       	movw	r20, r8
    1362:	42 1b       	sub	r20, r18
    1364:	53 0b       	sbc	r21, r19
    1366:	ff 20       	and	r15, r15
    1368:	09 f4       	brne	.+2      	;  0x136c
    136a:	f9 c0       	rjmp	.+498    	;  0x155e
    136c:	48 3c       	cpi	r20, 0xC8	; 200
    136e:	51 05       	cpc	r21, r1
    1370:	08 f0       	brcs	.+2      	;  0x1374
    1372:	a7 c0       	rjmp	.+334    	;  0x14c2
    1374:	88 23       	and	r24, r24
    1376:	09 f4       	brne	.+2      	;  0x137a
    1378:	42 c0       	rjmp	.+132    	;  0x13fe
    137a:	90 91 05 02 	lds	r25, 0x0205	;  0x800205
    137e:	80 91 0a 02 	lds	r24, 0x020A	;  0x80020a
    1382:	28 2f       	mov	r18, r24
    1384:	20 7f       	andi	r18, 0xF0	; 240
    1386:	09 f0       	breq	.+2      	;  0x138a
    1388:	5c c0       	rjmp	.+184    	;  0x1442
    138a:	9d 11       	cpse	r25, r13
    138c:	16 c0       	rjmp	.+44     	;  0x13ba
    138e:	90 91 04 02 	lds	r25, 0x0204	;  0x800204
    1392:	c9 12       	cpse	r12, r25
    1394:	12 c0       	rjmp	.+36     	;  0x13ba
    1396:	e1 10       	cpse	r14, r1
    1398:	4e c0       	rjmp	.+156    	;  0x1436
    139a:	8f 70       	andi	r24, 0x0F	; 15
    139c:	80 61       	ori	r24, 0x10	; 16
    139e:	80 93 0a 02 	sts	0x020A, r24	;  0x80020a
    13a2:	0e 94 e2 08 	call	0x11c4	;  0x11c4
    13a6:	84 e0       	ldi	r24, 0x04	; 4
    13a8:	92 e0       	ldi	r25, 0x02	; 2
    13aa:	0e 94 b6 06 	call	0xd6c	;  0xd6c
    13ae:	80 91 0a 02 	lds	r24, 0x020A	;  0x80020a
    13b2:	f8 01       	movw	r30, r16
    13b4:	86 83       	std	Z+6, r24	; 0x06
    13b6:	f1 2c       	mov	r15, r1
    13b8:	22 c0       	rjmp	.+68     	;  0x13fe
    13ba:	e1 10       	cpse	r14, r1
    13bc:	3c c0       	rjmp	.+120    	;  0x1436
    13be:	6d 2d       	mov	r22, r13
    13c0:	8c 2d       	mov	r24, r12
    13c2:	0e 94 4e 09 	call	0x129c	;  0x129c
    13c6:	6d 2d       	mov	r22, r13
    13c8:	8c 2d       	mov	r24, r12
    13ca:	0e 94 4e 09 	call	0x129c	;  0x129c
    13ce:	e8 2e       	mov	r14, r24
    13d0:	81 11       	cpse	r24, r1
    13d2:	f1 cf       	rjmp	.-30     	;  0x13b6
    13d4:	cf 86       	std	Y+15, r12	; 0x0f
    13d6:	d8 8a       	std	Y+16, r13	; 0x10
    13d8:	8f 85       	ldd	r24, Y+15	; 0x0f
    13da:	98 89       	ldd	r25, Y+16	; 0x10
    13dc:	0e 94 6d 08 	call	0x10da	;  0x10da
    13e0:	29 2f       	mov	r18, r25
    13e2:	22 95       	swap	r18
    13e4:	2f 70       	andi	r18, 0x0F	; 15
    13e6:	24 30       	cpi	r18, 0x04	; 4
    13e8:	78 f4       	brcc	.+30     	;  0x1408
    13ea:	9f 70       	andi	r25, 0x0F	; 15
    13ec:	22 30       	cpi	r18, 0x02	; 2
    13ee:	a8 f0       	brcs	.+42     	;  0x141a
    13f0:	99 23       	and	r25, r25
    13f2:	b9 f0       	breq	.+46     	;  0x1422
    13f4:	f8 01       	movw	r30, r16
    13f6:	96 81       	ldd	r25, Z+6	; 0x06
    13f8:	90 7f       	andi	r25, 0xF0	; 240
    13fa:	99 f4       	brne	.+38     	;  0x1422
    13fc:	fe 2c       	mov	r15, r14
    13fe:	8f 2d       	mov	r24, r15
    1400:	64 96       	adiw	r28, 0x14	; 20
    1402:	ec e0       	ldi	r30, 0x0C	; 12
    1404:	0c 94 d4 24 	jmp	0x49a8	;  0x49a8
    1408:	2a 5f       	subi	r18, 0xFA	; 250
    140a:	2f 70       	andi	r18, 0x0F	; 15
    140c:	22 30       	cpi	r18, 0x02	; 2
    140e:	68 f0       	brcs	.+26     	;  0x142a
    1410:	c8 01       	movw	r24, r16
    1412:	0e 94 b6 06 	call	0xd6c	;  0xd6c
    1416:	ef 2c       	mov	r14, r15
    1418:	f1 cf       	rjmp	.-30     	;  0x13fc
    141a:	99 23       	and	r25, r25
    141c:	11 f0       	breq	.+4      	;  0x1422
    141e:	88 23       	and	r24, r24
    1420:	69 f3       	breq	.-38     	;  0x13fc
    1422:	80 5e       	subi	r24, 0xE0	; 224
    1424:	88 30       	cpi	r24, 0x08	; 8
    1426:	50 f3       	brcs	.-44     	;  0x13fc
    1428:	f3 cf       	rjmp	.-26     	;  0x1410
    142a:	80 3f       	cpi	r24, 0xF0	; 240
    142c:	38 f3       	brcs	.-50     	;  0x13fc
    142e:	81 5f       	subi	r24, 0xF1	; 241
    1430:	83 30       	cpi	r24, 0x03	; 3
    1432:	70 f7       	brcc	.-36     	;  0x1410
    1434:	e3 cf       	rjmp	.-58     	;  0x13fc
    1436:	80 91 0a 02 	lds	r24, 0x020A	;  0x80020a
    143a:	81 60       	ori	r24, 0x01	; 1
    143c:	80 93 0a 02 	sts	0x020A, r24	;  0x80020a
    1440:	ba cf       	rjmp	.-140    	;  0x13b6
    1442:	9d 11       	cpse	r25, r13
    1444:	13 c0       	rjmp	.+38     	;  0x146c
    1446:	90 91 04 02 	lds	r25, 0x0204	;  0x800204
    144a:	c9 12       	cpse	r12, r25
    144c:	0f c0       	rjmp	.+30     	;  0x146c
    144e:	e1 10       	cpse	r14, r1
    1450:	0d c0       	rjmp	.+26     	;  0x146c
    1452:	86 83       	std	Z+6, r24	; 0x06
    1454:	c8 01       	movw	r24, r16
    1456:	0e 94 b6 06 	call	0xd6c	;  0xd6c
    145a:	87 e0       	ldi	r24, 0x07	; 7
    145c:	f8 01       	movw	r30, r16
    145e:	a4 e0       	ldi	r26, 0x04	; 4
    1460:	b2 e0       	ldi	r27, 0x02	; 2
    1462:	01 90       	ld	r0, Z+
    1464:	0d 92       	st	X+, r0
    1466:	8a 95       	dec	r24
    1468:	e1 f7       	brne	.-8      	;  0x1462
    146a:	67 cf       	rjmp	.-306    	;  0x133a
    146c:	c8 01       	movw	r24, r16
    146e:	0e 94 0f 07 	call	0xe1e	;  0xe1e
    1472:	88 23       	and	r24, r24
    1474:	09 f4       	brne	.+2      	;  0x1478
    1476:	64 cf       	rjmp	.-312    	;  0x1340
    1478:	ee 20       	and	r14, r14
    147a:	09 f4       	brne	.+2      	;  0x147e
    147c:	61 cf       	rjmp	.-318    	;  0x1340
    147e:	80 91 0a 02 	lds	r24, 0x020A	;  0x80020a
    1482:	80 32       	cpi	r24, 0x20	; 32
    1484:	88 f0       	brcs	.+34     	;  0x14a8
    1486:	20 91 04 02 	lds	r18, 0x0204	;  0x800204
    148a:	30 91 05 02 	lds	r19, 0x0205	;  0x800205
    148e:	39 87       	std	Y+9, r19	; 0x09
    1490:	28 87       	std	Y+8, r18	; 0x08
    1492:	9b 86       	std	Y+11, r9	; 0x0b
    1494:	8a 86       	std	Y+10, r8	; 0x0a
    1496:	90 91 08 02 	lds	r25, 0x0208	;  0x800208
    149a:	9c 87       	std	Y+12, r25	; 0x0c
    149c:	1d 86       	std	Y+13, r1	; 0x0d
    149e:	8e 87       	std	Y+14, r24	; 0x0e
    14a0:	ce 01       	movw	r24, r28
    14a2:	08 96       	adiw	r24, 0x08	; 8
    14a4:	0e 94 b6 06 	call	0xd6c	;  0xd6c
    14a8:	87 e0       	ldi	r24, 0x07	; 7
    14aa:	f8 01       	movw	r30, r16
    14ac:	a4 e0       	ldi	r26, 0x04	; 4
    14ae:	b2 e0       	ldi	r27, 0x02	; 2
    14b0:	01 90       	ld	r0, Z+
    14b2:	0d 92       	st	X+, r0
    14b4:	8a 95       	dec	r24
    14b6:	e1 f7       	brne	.-8      	;  0x14b0
    14b8:	0e 94 f3 08 	call	0x11e6	;  0x11e6
    14bc:	0e 94 e2 08 	call	0x11c4	;  0x11c4
    14c0:	42 cf       	rjmp	.-380    	;  0x1346
    14c2:	90 91 0a 02 	lds	r25, 0x020A	;  0x80020a
    14c6:	29 2f       	mov	r18, r25
    14c8:	20 7f       	andi	r18, 0xF0	; 240
    14ca:	a1 f4       	brne	.+40     	;  0x14f4
    14cc:	68 2d       	mov	r22, r8
    14ce:	9a 8a       	std	Y+18, r9	; 0x12
    14d0:	89 8a       	std	Y+17, r8	; 0x11
    14d2:	a6 01       	movw	r20, r12
    14d4:	7a 89       	ldd	r23, Y+18	; 0x12
    14d6:	9e 2d       	mov	r25, r14
    14d8:	0e 94 1c 07 	call	0xe38	;  0xe38
    14dc:	84 e0       	ldi	r24, 0x04	; 4
    14de:	92 e0       	ldi	r25, 0x02	; 2
    14e0:	0e 94 b6 06 	call	0xd6c	;  0xd6c
    14e4:	87 e0       	ldi	r24, 0x07	; 7
    14e6:	f5 01       	movw	r30, r10
    14e8:	11 92       	st	Z+, r1
    14ea:	8a 95       	dec	r24
    14ec:	e9 f7       	brne	.-6      	;  0x14e8
    14ee:	0e 94 e2 08 	call	0x11c4	;  0x11c4
    14f2:	61 cf       	rjmp	.-318    	;  0x13b6
    14f4:	88 23       	and	r24, r24
    14f6:	09 f4       	brne	.+2      	;  0x14fa
    14f8:	82 cf       	rjmp	.-252    	;  0x13fe
    14fa:	80 91 05 02 	lds	r24, 0x0205	;  0x800205
    14fe:	8d 11       	cpse	r24, r13
    1500:	10 c0       	rjmp	.+32     	;  0x1522
    1502:	80 91 04 02 	lds	r24, 0x0204	;  0x800204
    1506:	c8 12       	cpse	r12, r24
    1508:	0c c0       	rjmp	.+24     	;  0x1522
    150a:	e1 10       	cpse	r14, r1
    150c:	0a c0       	rjmp	.+20     	;  0x1522
    150e:	96 83       	std	Z+6, r25	; 0x06
    1510:	c8 01       	movw	r24, r16
    1512:	0e 94 b6 06 	call	0xd6c	;  0xd6c
    1516:	87 e0       	ldi	r24, 0x07	; 7
    1518:	f5 01       	movw	r30, r10
    151a:	11 92       	st	Z+, r1
    151c:	8a 95       	dec	r24
    151e:	e9 f7       	brne	.-6      	;  0x151a
    1520:	6e cf       	rjmp	.-292    	;  0x13fe
    1522:	c8 01       	movw	r24, r16
    1524:	0e 94 0f 07 	call	0xe1e	;  0xe1e
    1528:	88 23       	and	r24, r24
    152a:	09 f4       	brne	.+2      	;  0x152e
    152c:	09 cf       	rjmp	.-494    	;  0x1340
    152e:	ee 20       	and	r14, r14
    1530:	09 f4       	brne	.+2      	;  0x1534
    1532:	06 cf       	rjmp	.-500    	;  0x1340
    1534:	80 91 0a 02 	lds	r24, 0x020A	;  0x80020a
    1538:	80 32       	cpi	r24, 0x20	; 32
    153a:	08 f4       	brcc	.+2      	;  0x153e
    153c:	b5 cf       	rjmp	.-150    	;  0x14a8
    153e:	20 91 04 02 	lds	r18, 0x0204	;  0x800204
    1542:	30 91 05 02 	lds	r19, 0x0205	;  0x800205
    1546:	3a 83       	std	Y+2, r19	; 0x02
    1548:	29 83       	std	Y+1, r18	; 0x01
    154a:	9c 82       	std	Y+4, r9	; 0x04
    154c:	8b 82       	std	Y+3, r8	; 0x03
    154e:	90 91 08 02 	lds	r25, 0x0208	;  0x800208
    1552:	9d 83       	std	Y+5, r25	; 0x05
    1554:	1e 82       	std	Y+6, r1	; 0x06
    1556:	8f 83       	std	Y+7, r24	; 0x07
    1558:	ce 01       	movw	r24, r28
    155a:	01 96       	adiw	r24, 0x01	; 1
    155c:	a3 cf       	rjmp	.-186    	;  0x14a4
    155e:	48 3c       	cpi	r20, 0xC8	; 200
    1560:	51 05       	cpc	r21, r1
    1562:	b8 f5       	brcc	.+110    	;  0x15d2
    1564:	88 23       	and	r24, r24
    1566:	09 f4       	brne	.+2      	;  0x156a
    1568:	ee ce       	rjmp	.-548    	;  0x1346
    156a:	fe 2c       	mov	r15, r14
    156c:	ee 20       	and	r14, r14
    156e:	09 f4       	brne	.+2      	;  0x1572
    1570:	e7 ce       	rjmp	.-562    	;  0x1340
    1572:	80 91 05 02 	lds	r24, 0x0205	;  0x800205
    1576:	8d 11       	cpse	r24, r13
    1578:	1e c0       	rjmp	.+60     	;  0x15b6
    157a:	80 91 04 02 	lds	r24, 0x0204	;  0x800204
    157e:	c8 12       	cpse	r12, r24
    1580:	1a c0       	rjmp	.+52     	;  0x15b6
    1582:	80 91 0a 02 	lds	r24, 0x020A	;  0x80020a
    1586:	80 fd       	sbrc	r24, 0
    1588:	0d c0       	rjmp	.+26     	;  0x15a4
    158a:	98 2f       	mov	r25, r24
    158c:	90 7f       	andi	r25, 0xF0	; 240
    158e:	51 f0       	breq	.+20     	;  0x15a4
    1590:	86 83       	std	Z+6, r24	; 0x06
    1592:	90 3f       	cpi	r25, 0xF0	; 240
    1594:	09 f4       	brne	.+2      	;  0x1598
    1596:	5e cf       	rjmp	.-324    	;  0x1454
    1598:	98 2f       	mov	r25, r24
    159a:	90 7f       	andi	r25, 0xF0	; 240
    159c:	90 5f       	subi	r25, 0xF0	; 240
    159e:	8f 70       	andi	r24, 0x0F	; 15
    15a0:	89 2b       	or	r24, r25
    15a2:	57 cf       	rjmp	.-338    	;  0x1452
    15a4:	87 e0       	ldi	r24, 0x07	; 7
    15a6:	f8 01       	movw	r30, r16
    15a8:	a4 e0       	ldi	r26, 0x04	; 4
    15aa:	b2 e0       	ldi	r27, 0x02	; 2
    15ac:	01 90       	ld	r0, Z+
    15ae:	0d 92       	st	X+, r0
    15b0:	8a 95       	dec	r24
    15b2:	e1 f7       	brne	.-8      	;  0x15ac
    15b4:	24 cf       	rjmp	.-440    	;  0x13fe
    15b6:	c8 01       	movw	r24, r16
    15b8:	0e 94 0f 07 	call	0xe1e	;  0xe1e
    15bc:	81 11       	cpse	r24, r1
    15be:	74 cf       	rjmp	.-280    	;  0x14a8
    15c0:	80 91 0a 02 	lds	r24, 0x020A	;  0x80020a
    15c4:	81 60       	ori	r24, 0x01	; 1
    15c6:	80 93 0a 02 	sts	0x020A, r24	;  0x80020a
    15ca:	c8 01       	movw	r24, r16
    15cc:	0e 94 b6 06 	call	0xd6c	;  0xd6c
    15d0:	16 cf       	rjmp	.-468    	;  0x13fe
    15d2:	68 2d       	mov	r22, r8
    15d4:	9a 8a       	std	Y+18, r9	; 0x12
    15d6:	89 8a       	std	Y+17, r8	; 0x11
    15d8:	a6 01       	movw	r20, r12
    15da:	7a 89       	ldd	r23, Y+18	; 0x12
    15dc:	9e 2d       	mov	r25, r14
    15de:	0e 94 1c 07 	call	0xe38	;  0xe38
    15e2:	87 e0       	ldi	r24, 0x07	; 7
    15e4:	f5 01       	movw	r30, r10
    15e6:	11 92       	st	Z+, r1
    15e8:	8a 95       	dec	r24
    15ea:	e9 f7       	brne	.-6      	;  0x15e6
    15ec:	a6 ce       	rjmp	.-692    	;  0x133a
    15ee:	ae e0       	ldi	r26, 0x0E	; 14
    15f0:	b0 e0       	ldi	r27, 0x00	; 0
    15f2:	ed ef       	ldi	r30, 0xFD	; 253
    15f4:	fa e0       	ldi	r31, 0x0A	; 10
    15f6:	0c 94 c1 24 	jmp	0x4982	;  0x4982
    15fa:	28 87       	std	Y+8, r18	; 0x08
    15fc:	39 87       	std	Y+9, r19	; 0x09
    15fe:	4a 87       	std	Y+10, r20	; 0x0a
    1600:	5b 87       	std	Y+11, r21	; 0x0b
    1602:	6c 87       	std	Y+12, r22	; 0x0c
    1604:	7d 87       	std	Y+13, r23	; 0x0d
    1606:	8e 87       	std	Y+14, r24	; 0x0e
    1608:	ce 01       	movw	r24, r28
    160a:	08 96       	adiw	r24, 0x08	; 8
    160c:	0e 94 6d 09 	call	0x12da	;  0x12da
    1610:	88 23       	and	r24, r24
    1612:	b1 f0       	breq	.+44     	;  0x1640
    1614:	6c 85       	ldd	r22, Y+12	; 0x0c
    1616:	66 23       	and	r22, r22
    1618:	41 f0       	breq	.+16     	;  0x162a
    161a:	28 85       	ldd	r18, Y+8	; 0x08
    161c:	39 85       	ldd	r19, Y+9	; 0x09
    161e:	4a 85       	ldd	r20, Y+10	; 0x0a
    1620:	5b 85       	ldd	r21, Y+11	; 0x0b
    1622:	7d 85       	ldd	r23, Y+13	; 0x0d
    1624:	8e 85       	ldd	r24, Y+14	; 0x0e
    1626:	0e 94 26 07 	call	0xe4c	;  0xe4c
    162a:	17 e0       	ldi	r17, 0x07	; 7
    162c:	80 91 ca 01 	lds	r24, 0x01CA	;  0x8001ca
    1630:	90 91 cb 01 	lds	r25, 0x01CB	;  0x8001cb
    1634:	89 13       	cpse	r24, r25
    1636:	3d c0       	rjmp	.+122    	;  0x16b2
    1638:	2e 96       	adiw	r28, 0x0e	; 14
    163a:	e3 e0       	ldi	r30, 0x03	; 3
    163c:	0c 94 dd 24 	jmp	0x49ba	;  0x49ba
    1640:	87 e0       	ldi	r24, 0x07	; 7
    1642:	fe 01       	movw	r30, r28
    1644:	38 96       	adiw	r30, 0x08	; 8
    1646:	de 01       	movw	r26, r28
    1648:	11 96       	adiw	r26, 0x01	; 1
    164a:	01 90       	ld	r0, Z+
    164c:	0d 92       	st	X+, r0
    164e:	8a 95       	dec	r24
    1650:	e1 f7       	brne	.-8      	;  0x164a
    1652:	8c 85       	ldd	r24, Y+12	; 0x0c
    1654:	88 23       	and	r24, r24
    1656:	49 f3       	breq	.-46     	;  0x162a
    1658:	20 91 cb 01 	lds	r18, 0x01CB	;  0x8001cb
    165c:	30 e0       	ldi	r19, 0x00	; 0
    165e:	c9 01       	movw	r24, r18
    1660:	01 96       	adiw	r24, 0x01	; 1
    1662:	87 70       	andi	r24, 0x07	; 7
    1664:	99 27       	eor	r25, r25
    1666:	40 91 ca 01 	lds	r20, 0x01CA	;  0x8001ca
    166a:	48 17       	cp	r20, r24
    166c:	19 06       	cpc	r1, r25
    166e:	99 f0       	breq	.+38     	;  0x1696
    1670:	97 e0       	ldi	r25, 0x07	; 7
    1672:	92 9f       	mul	r25, r18
    1674:	d0 01       	movw	r26, r0
    1676:	93 9f       	mul	r25, r19
    1678:	b0 0d       	add	r27, r0
    167a:	11 24       	eor	r1, r1
    167c:	a4 53       	subi	r26, 0x34	; 52
    167e:	be 4f       	sbci	r27, 0xFE	; 254
    1680:	fe 01       	movw	r30, r28
    1682:	31 96       	adiw	r30, 0x01	; 1
    1684:	01 90       	ld	r0, Z+
    1686:	0d 92       	st	X+, r0
    1688:	9a 95       	dec	r25
    168a:	e1 f7       	brne	.-8      	;  0x1684
    168c:	80 93 cb 01 	sts	0x01CB, r24	;  0x8001cb
    1690:	0e 94 c0 08 	call	0x1180	;  0x1180
    1694:	ca cf       	rjmp	.-108    	;  0x162a
    1696:	0e 94 ef 06 	call	0xdde	;  0xdde
    169a:	10 92 cb 01 	sts	0x01CB, r1	;  0x8001cb
    169e:	10 92 ca 01 	sts	0x01CA, r1	;  0x8001ca
    16a2:	87 e0       	ldi	r24, 0x07	; 7
    16a4:	e4 e0       	ldi	r30, 0x04	; 4
    16a6:	f2 e0       	ldi	r31, 0x02	; 2
    16a8:	df 01       	movw	r26, r30
    16aa:	1d 92       	st	X+, r1
    16ac:	8a 95       	dec	r24
    16ae:	e9 f7       	brne	.-6      	;  0x16aa
    16b0:	bc cf       	rjmp	.-136    	;  0x162a
    16b2:	81 9f       	mul	r24, r17
    16b4:	c0 01       	movw	r24, r0
    16b6:	11 24       	eor	r1, r1
    16b8:	84 53       	subi	r24, 0x34	; 52
    16ba:	9e 4f       	sbci	r25, 0xFE	; 254
    16bc:	0e 94 6d 09 	call	0x12da	;  0x12da
    16c0:	88 23       	and	r24, r24
    16c2:	09 f4       	brne	.+2      	;  0x16c6
    16c4:	b9 cf       	rjmp	.-142    	;  0x1638
    16c6:	e0 91 ca 01 	lds	r30, 0x01CA	;  0x8001ca
    16ca:	1e 9f       	mul	r17, r30
    16cc:	f0 01       	movw	r30, r0
    16ce:	11 24       	eor	r1, r1
    16d0:	e4 53       	subi	r30, 0x34	; 52
    16d2:	fe 4f       	sbci	r31, 0xFE	; 254
    16d4:	20 81       	ld	r18, Z
    16d6:	31 81       	ldd	r19, Z+1	; 0x01
    16d8:	42 81       	ldd	r20, Z+2	; 0x02
    16da:	53 81       	ldd	r21, Z+3	; 0x03
    16dc:	64 81       	ldd	r22, Z+4	; 0x04
    16de:	75 81       	ldd	r23, Z+5	; 0x05
    16e0:	86 81       	ldd	r24, Z+6	; 0x06
    16e2:	0e 94 26 07 	call	0xe4c	;  0xe4c
    16e6:	80 91 ca 01 	lds	r24, 0x01CA	;  0x8001ca
    16ea:	90 e0       	ldi	r25, 0x00	; 0
    16ec:	01 96       	adiw	r24, 0x01	; 1
    16ee:	87 70       	andi	r24, 0x07	; 7
    16f0:	99 27       	eor	r25, r25
    16f2:	80 93 ca 01 	sts	0x01CA, r24	;  0x8001ca
    16f6:	9a cf       	rjmp	.-204    	;  0x162c
    16f8:	68 2f       	mov	r22, r24
    16fa:	80 91 00 01 	lds	r24, 0x0100	;  0x800100
    16fe:	90 91 01 01 	lds	r25, 0x0101	;  0x800101
    1702:	0e 94 e6 1a 	call	0x35cc	;  0x35cc
    1706:	08 95       	ret
    1708:	68 2f       	mov	r22, r24
    170a:	80 91 00 01 	lds	r24, 0x0100	;  0x800100
    170e:	90 91 01 01 	lds	r25, 0x0101	;  0x800101
    1712:	0e 94 e9 1a 	call	0x35d2	;  0x35d2
    1716:	08 95       	ret
    1718:	80 91 00 01 	lds	r24, 0x0100	;  0x800100
    171c:	90 91 01 01 	lds	r25, 0x0101	;  0x800101
    1720:	0e 94 ec 1a 	call	0x35d8	;  0x35d8
    1724:	08 95       	ret
    1726:	80 91 13 02 	lds	r24, 0x0213	;  0x800213
    172a:	86 95       	lsr	r24
    172c:	86 95       	lsr	r24
    172e:	86 95       	lsr	r24
    1730:	08 95       	ret
    1732:	80 91 13 02 	lds	r24, 0x0213	;  0x800213
    1736:	87 70       	andi	r24, 0x07	; 7
    1738:	08 95       	ret
    173a:	90 91 13 02 	lds	r25, 0x0213	;  0x800213
    173e:	97 70       	andi	r25, 0x07	; 7
    1740:	81 e0       	ldi	r24, 0x01	; 1
    1742:	09 f4       	brne	.+2      	;  0x1746
    1744:	80 e0       	ldi	r24, 0x00	; 0
    1746:	08 95       	ret
    1748:	80 91 1f 02 	lds	r24, 0x021F	;  0x80021f
    174c:	08 95       	ret
    174e:	90 91 1f 02 	lds	r25, 0x021F	;  0x80021f
    1752:	89 2b       	or	r24, r25
    1754:	80 93 1f 02 	sts	0x021F, r24	;  0x80021f
    1758:	08 95       	ret
    175a:	80 95       	com	r24
    175c:	90 91 1f 02 	lds	r25, 0x021F	;  0x80021f
    1760:	98 23       	and	r25, r24
    1762:	90 93 1f 02 	sts	0x021F, r25	;  0x80021f
    1766:	08 95       	ret
    1768:	10 92 1f 02 	sts	0x021F, r1	;  0x80021f
    176c:	08 95       	ret
    176e:	90 91 1e 02 	lds	r25, 0x021E	;  0x80021e
    1772:	89 2b       	or	r24, r25
    1774:	80 93 1e 02 	sts	0x021E, r24	;  0x80021e
    1778:	08 95       	ret
    177a:	80 95       	com	r24
    177c:	90 91 1e 02 	lds	r25, 0x021E	;  0x80021e
    1780:	98 23       	and	r25, r24
    1782:	90 93 1e 02 	sts	0x021E, r25	;  0x80021e
    1786:	08 95       	ret
    1788:	10 92 1e 02 	sts	0x021E, r1	;  0x80021e
    178c:	08 95       	ret
    178e:	08 95       	ret
    1790:	0e 94 c7 0b 	call	0x178e	;  0x178e
    1794:	08 95       	ret
    1796:	90 91 14 02 	lds	r25, 0x0214	;  0x800214
    179a:	29 2f       	mov	r18, r25
    179c:	28 23       	and	r18, r24
    179e:	31 f0       	breq	.+12     	;  0x17ac
    17a0:	80 95       	com	r24
    17a2:	89 23       	and	r24, r25
    17a4:	80 93 14 02 	sts	0x0214, r24	;  0x800214
    17a8:	0e 94 c8 0b 	call	0x1790	;  0x1790
    17ac:	08 95       	ret
    17ae:	08 95       	ret
    17b0:	0e 94 d7 0b 	call	0x17ae	;  0x17ae
    17b4:	08 95       	ret
    17b6:	90 91 15 02 	lds	r25, 0x0215	;  0x800215
    17ba:	29 2f       	mov	r18, r25
    17bc:	28 23       	and	r18, r24
    17be:	28 17       	cp	r18, r24
    17c0:	29 f0       	breq	.+10     	;  0x17cc
    17c2:	98 2b       	or	r25, r24
    17c4:	90 93 15 02 	sts	0x0215, r25	;  0x800215
    17c8:	0e 94 d8 0b 	call	0x17b0	;  0x17b0
    17cc:	08 95       	ret
    17ce:	90 91 15 02 	lds	r25, 0x0215	;  0x800215
    17d2:	29 2f       	mov	r18, r25
    17d4:	28 23       	and	r18, r24
    17d6:	31 f0       	breq	.+12     	;  0x17e4
    17d8:	80 95       	com	r24
    17da:	89 23       	and	r24, r25
    17dc:	80 93 15 02 	sts	0x0215, r24	;  0x800215
    17e0:	0e 94 d8 0b 	call	0x17b0	;  0x17b0
    17e4:	08 95       	ret
    17e6:	80 91 15 02 	lds	r24, 0x0215	;  0x800215
    17ea:	88 23       	and	r24, r24
    17ec:	29 f0       	breq	.+10     	;  0x17f8
    17ee:	10 92 15 02 	sts	0x0215, r1	;  0x800215
    17f2:	80 e0       	ldi	r24, 0x00	; 0
    17f4:	0e 94 d8 0b 	call	0x17b0	;  0x17b0
    17f8:	08 95       	ret
    17fa:	cf 93       	push	r28
    17fc:	df 93       	push	r29
    17fe:	e0 91 00 01 	lds	r30, 0x0100	;  0x800100
    1802:	f0 91 01 01 	lds	r31, 0x0101	;  0x800101
    1806:	80 91 1f 02 	lds	r24, 0x021F	;  0x80021f
    180a:	80 83       	st	Z, r24
    180c:	e0 91 00 01 	lds	r30, 0x0100	;  0x800100
    1810:	f0 91 01 01 	lds	r31, 0x0101	;  0x800101
    1814:	80 81       	ld	r24, Z
    1816:	90 91 1e 02 	lds	r25, 0x021E	;  0x80021e
    181a:	89 2b       	or	r24, r25
    181c:	80 83       	st	Z, r24
    181e:	90 91 15 02 	lds	r25, 0x0215	;  0x800215
    1822:	99 23       	and	r25, r25
    1824:	81 f0       	breq	.+32     	;  0x1846
    1826:	e0 91 00 01 	lds	r30, 0x0100	;  0x800100
    182a:	f0 91 01 01 	lds	r31, 0x0101	;  0x800101
    182e:	80 81       	ld	r24, Z
    1830:	89 2b       	or	r24, r25
    1832:	80 83       	st	Z, r24
    1834:	80 91 00 01 	lds	r24, 0x0100	;  0x800100
    1838:	90 91 01 01 	lds	r25, 0x0101	;  0x800101
    183c:	0e 94 9e 1a 	call	0x353c	;  0x353c
    1840:	81 11       	cpse	r24, r1
    1842:	0e 94 f3 0b 	call	0x17e6	;  0x17e6
    1846:	c0 91 00 01 	lds	r28, 0x0100	;  0x800100
    184a:	d0 91 01 01 	lds	r29, 0x0101	;  0x800101
    184e:	48 e0       	ldi	r20, 0x08	; 8
    1850:	50 e0       	ldi	r21, 0x00	; 0
    1852:	6b e0       	ldi	r22, 0x0B	; 11
    1854:	72 e0       	ldi	r23, 0x02	; 2
    1856:	ce 01       	movw	r24, r28
    1858:	0e 94 fd 24 	call	0x49fa	;  0x49fa
    185c:	89 2b       	or	r24, r25
    185e:	59 f0       	breq	.+22     	;  0x1876
    1860:	88 e0       	ldi	r24, 0x08	; 8
    1862:	fe 01       	movw	r30, r28
    1864:	ab e0       	ldi	r26, 0x0B	; 11
    1866:	b2 e0       	ldi	r27, 0x02	; 2
    1868:	01 90       	ld	r0, Z+
    186a:	0d 92       	st	X+, r0
    186c:	8a 95       	dec	r24
    186e:	e1 f7       	brne	.-8      	;  0x1868
    1870:	ce 01       	movw	r24, r28
    1872:	0e 94 3b 1a 	call	0x3476	;  0x3476
    1876:	df 91       	pop	r29
    1878:	cf 91       	pop	r28
    187a:	08 95       	ret
    187c:	08 95       	ret
    187e:	0e 94 3e 0c 	call	0x187c	;  0x187c
    1882:	08 95       	ret
    1884:	90 91 81 02 	lds	r25, 0x0281	;  0x800281
    1888:	92 ff       	sbrs	r25, 2
    188a:	11 c0       	rjmp	.+34     	;  0x18ae
    188c:	98 e0       	ldi	r25, 0x08	; 8
    188e:	89 9f       	mul	r24, r25
    1890:	90 01       	movw	r18, r0
    1892:	11 24       	eor	r1, r1
    1894:	62 2b       	or	r22, r18
    1896:	60 93 13 02 	sts	0x0213, r22	;  0x800213
    189a:	0e 94 75 07 	call	0xeea	;  0xeea
    189e:	80 91 13 02 	lds	r24, 0x0213	;  0x800213
    18a2:	86 95       	lsr	r24
    18a4:	86 95       	lsr	r24
    18a6:	86 95       	lsr	r24
    18a8:	0e 94 3f 0c 	call	0x187e	;  0x187e
    18ac:	08 95       	ret
    18ae:	0e 94 75 07 	call	0xeea	;  0xeea
    18b2:	08 95       	ret
    18b4:	10 92 13 02 	sts	0x0213, r1	;  0x800213
    18b8:	80 e0       	ldi	r24, 0x00	; 0
    18ba:	0e 94 3f 0c 	call	0x187e	;  0x187e
    18be:	08 95       	ret
    18c0:	90 91 13 02 	lds	r25, 0x0213	;  0x800213
    18c4:	80 95       	com	r24
    18c6:	89 23       	and	r24, r25
    18c8:	80 93 13 02 	sts	0x0213, r24	;  0x800213
    18cc:	28 2f       	mov	r18, r24
    18ce:	27 70       	andi	r18, 0x07	; 7
    18d0:	69 f4       	brne	.+26     	;  0x18ec
    18d2:	89 17       	cp	r24, r25
    18d4:	59 f0       	breq	.+22     	;  0x18ec
    18d6:	90 91 81 02 	lds	r25, 0x0281	;  0x800281
    18da:	92 ff       	sbrs	r25, 2
    18dc:	07 c0       	rjmp	.+14     	;  0x18ec
    18de:	86 95       	lsr	r24
    18e0:	86 95       	lsr	r24
    18e2:	86 95       	lsr	r24
    18e4:	0e 94 85 07 	call	0xf0a	;  0xf0a
    18e8:	0e 94 5a 0c 	call	0x18b4	;  0x18b4
    18ec:	08 95       	ret
    18ee:	90 91 81 02 	lds	r25, 0x0281	;  0x800281
    18f2:	92 fb       	bst	r25, 2
    18f4:	22 27       	eor	r18, r18
    18f6:	20 f9       	bld	r18, 0
    18f8:	28 17       	cp	r18, r24
    18fa:	69 f0       	breq	.+26     	;  0x1916
    18fc:	80 fb       	bst	r24, 0
    18fe:	92 f9       	bld	r25, 2
    1900:	90 93 81 02 	sts	0x0281, r25	;  0x800281
    1904:	80 91 80 02 	lds	r24, 0x0280	;  0x800280
    1908:	90 91 81 02 	lds	r25, 0x0281	;  0x800281
    190c:	0e 94 c5 0c 	call	0x198a	;  0x198a
    1910:	82 e0       	ldi	r24, 0x02	; 2
    1912:	0e 94 60 0c 	call	0x18c0	;  0x18c0
    1916:	08 95       	ret
    1918:	80 91 81 02 	lds	r24, 0x0281	;  0x800281
    191c:	82 fb       	bst	r24, 2
    191e:	88 27       	eor	r24, r24
    1920:	80 f9       	bld	r24, 0
    1922:	91 e0       	ldi	r25, 0x01	; 1
    1924:	89 27       	eor	r24, r25
    1926:	0e 94 77 0c 	call	0x18ee	;  0x18ee
    192a:	08 95       	ret
    192c:	81 e0       	ldi	r24, 0x01	; 1
    192e:	0e 94 77 0c 	call	0x18ee	;  0x18ee
    1932:	08 95       	ret
    1934:	80 e0       	ldi	r24, 0x00	; 0
    1936:	0e 94 77 0c 	call	0x18ee	;  0x18ee
    193a:	08 95       	ret
    193c:	6f ef       	ldi	r22, 0xFF	; 255
    193e:	7f ef       	ldi	r23, 0xFF	; 255
    1940:	90 e0       	ldi	r25, 0x00	; 0
    1942:	80 e0       	ldi	r24, 0x00	; 0
    1944:	0e 94 4f 25 	call	0x4a9e	;  0x4a9e
    1948:	08 95       	ret
    194a:	90 e0       	ldi	r25, 0x00	; 0
    194c:	80 e0       	ldi	r24, 0x00	; 0
    194e:	0e 94 1b 25 	call	0x4a36	;  0x4a36
    1952:	21 e0       	ldi	r18, 0x01	; 1
    1954:	86 3e       	cpi	r24, 0xE6	; 230
    1956:	9e 4f       	sbci	r25, 0xFE	; 254
    1958:	09 f0       	breq	.+2      	;  0x195c
    195a:	20 e0       	ldi	r18, 0x00	; 0
    195c:	82 2f       	mov	r24, r18
    195e:	08 95       	ret
    1960:	82 e0       	ldi	r24, 0x02	; 2
    1962:	90 e0       	ldi	r25, 0x00	; 0
    1964:	0e 94 13 25 	call	0x4a26	;  0x4a26
    1968:	08 95       	ret
    196a:	83 e0       	ldi	r24, 0x03	; 3
    196c:	90 e0       	ldi	r25, 0x00	; 0
    196e:	0e 94 13 25 	call	0x4a26	;  0x4a26
    1972:	08 95       	ret
    1974:	68 2f       	mov	r22, r24
    1976:	83 e0       	ldi	r24, 0x03	; 3
    1978:	90 e0       	ldi	r25, 0x00	; 0
    197a:	0e 94 31 25 	call	0x4a62	;  0x4a62
    197e:	08 95       	ret
    1980:	84 e0       	ldi	r24, 0x04	; 4
    1982:	90 e0       	ldi	r25, 0x00	; 0
    1984:	0e 94 1b 25 	call	0x4a36	;  0x4a36
    1988:	08 95       	ret
    198a:	bc 01       	movw	r22, r24
    198c:	84 e0       	ldi	r24, 0x04	; 4
    198e:	90 e0       	ldi	r25, 0x00	; 0
    1990:	0e 94 4f 25 	call	0x4a9e	;  0x4a9e
    1994:	08 95       	ret
    1996:	ab 01       	movw	r20, r22
    1998:	bc 01       	movw	r22, r24
    199a:	8f e0       	ldi	r24, 0x0F	; 15
    199c:	90 e0       	ldi	r25, 0x00	; 0
    199e:	0e 94 43 25 	call	0x4a86	;  0x4a86
    19a2:	08 95       	ret
    19a4:	ab 01       	movw	r20, r22
    19a6:	bc 01       	movw	r22, r24
    19a8:	83 e1       	ldi	r24, 0x13	; 19
    19aa:	90 e0       	ldi	r25, 0x00	; 0
    19ac:	0e 94 43 25 	call	0x4a86	;  0x4a86
    19b0:	08 95       	ret
    19b2:	60 e0       	ldi	r22, 0x00	; 0
    19b4:	70 e0       	ldi	r23, 0x00	; 0
    19b6:	cb 01       	movw	r24, r22
    19b8:	0e 94 d2 0c 	call	0x19a4	;  0x19a4
    19bc:	08 95       	ret
    19be:	60 e0       	ldi	r22, 0x00	; 0
    19c0:	70 e0       	ldi	r23, 0x00	; 0
    19c2:	cb 01       	movw	r24, r22
    19c4:	0e 94 cb 0c 	call	0x1996	;  0x1996
    19c8:	0e 94 d9 0c 	call	0x19b2	;  0x19b2
    19cc:	08 95       	ret
    19ce:	a8 e0       	ldi	r26, 0x08	; 8
    19d0:	b0 e0       	ldi	r27, 0x00	; 0
    19d2:	ed ee       	ldi	r30, 0xED	; 237
    19d4:	fc e0       	ldi	r31, 0x0C	; 12
    19d6:	0c 94 c2 24 	jmp	0x4984	;  0x4984
    19da:	66 ee       	ldi	r22, 0xE6	; 230
    19dc:	7e ef       	ldi	r23, 0xFE	; 254
    19de:	90 e0       	ldi	r25, 0x00	; 0
    19e0:	80 e0       	ldi	r24, 0x00	; 0
    19e2:	0e 94 4f 25 	call	0x4a9e	;  0x4a9e
    19e6:	60 e0       	ldi	r22, 0x00	; 0
    19e8:	82 e0       	ldi	r24, 0x02	; 2
    19ea:	90 e0       	ldi	r25, 0x00	; 0
    19ec:	0e 94 31 25 	call	0x4a62	;  0x4a62
    19f0:	60 e0       	ldi	r22, 0x00	; 0
    19f2:	83 e0       	ldi	r24, 0x03	; 3
    19f4:	90 e0       	ldi	r25, 0x00	; 0
    19f6:	0e 94 31 25 	call	0x4a62	;  0x4a62
    19fa:	10 92 c9 01 	sts	0x01C9, r1	;  0x8001c9
    19fe:	10 92 c8 01 	sts	0x01C8, r1	;  0x8001c8
    1a02:	60 e0       	ldi	r22, 0x00	; 0
    1a04:	74 e1       	ldi	r23, 0x14	; 20
    1a06:	84 e0       	ldi	r24, 0x04	; 4
    1a08:	90 e0       	ldi	r25, 0x00	; 0
    1a0a:	0e 94 4f 25 	call	0x4a9e	;  0x4a9e
    1a0e:	60 e0       	ldi	r22, 0x00	; 0
    1a10:	86 e0       	ldi	r24, 0x06	; 6
    1a12:	90 e0       	ldi	r25, 0x00	; 0
    1a14:	0e 94 31 25 	call	0x4a62	;  0x4a62
    1a18:	6f ef       	ldi	r22, 0xFF	; 255
    1a1a:	87 e0       	ldi	r24, 0x07	; 7
    1a1c:	90 e0       	ldi	r25, 0x00	; 0
    1a1e:	0e 94 31 25 	call	0x4a62	;  0x4a62
    1a22:	40 e0       	ldi	r20, 0x00	; 0
    1a24:	50 e0       	ldi	r21, 0x00	; 0
    1a26:	ba 01       	movw	r22, r20
    1a28:	88 e0       	ldi	r24, 0x08	; 8
    1a2a:	90 e0       	ldi	r25, 0x00	; 0
    1a2c:	0e 94 43 25 	call	0x4a86	;  0x4a86
    1a30:	60 e0       	ldi	r22, 0x00	; 0
    1a32:	84 e2       	ldi	r24, 0x24	; 36
    1a34:	90 e0       	ldi	r25, 0x00	; 0
    1a36:	0e 94 31 25 	call	0x4a62	;  0x4a62
    1a3a:	60 e0       	ldi	r22, 0x00	; 0
    1a3c:	87 e1       	ldi	r24, 0x17	; 23
    1a3e:	90 e0       	ldi	r25, 0x00	; 0
    1a40:	0e 94 31 25 	call	0x4a62	;  0x4a62
    1a44:	60 e0       	ldi	r22, 0x00	; 0
    1a46:	8c e0       	ldi	r24, 0x0C	; 12
    1a48:	90 e0       	ldi	r25, 0x00	; 0
    1a4a:	0e 94 31 25 	call	0x4a62	;  0x4a62
    1a4e:	60 e0       	ldi	r22, 0x00	; 0
    1a50:	8d e0       	ldi	r24, 0x0D	; 13
    1a52:	90 e0       	ldi	r25, 0x00	; 0
    1a54:	0e 94 31 25 	call	0x4a62	;  0x4a62
    1a58:	19 82       	std	Y+1, r1	; 0x01
    1a5a:	1a 82       	std	Y+2, r1	; 0x02
    1a5c:	1b 82       	std	Y+3, r1	; 0x03
    1a5e:	1c 82       	std	Y+4, r1	; 0x04
    1a60:	1d 82       	std	Y+5, r1	; 0x05
    1a62:	1e 82       	std	Y+6, r1	; 0x06
    1a64:	1f 82       	std	Y+7, r1	; 0x07
    1a66:	18 86       	std	Y+8, r1	; 0x08
    1a68:	48 e0       	ldi	r20, 0x08	; 8
    1a6a:	50 e0       	ldi	r21, 0x00	; 0
    1a6c:	68 e1       	ldi	r22, 0x18	; 24
    1a6e:	70 e0       	ldi	r23, 0x00	; 0
    1a70:	ce 01       	movw	r24, r28
    1a72:	01 96       	adiw	r24, 0x01	; 1
    1a74:	0e 94 21 25 	call	0x4a42	;  0x4a42
    1a78:	40 e0       	ldi	r20, 0x00	; 0
    1a7a:	50 e0       	ldi	r21, 0x00	; 0
    1a7c:	ba 01       	movw	r22, r20
    1a7e:	80 e2       	ldi	r24, 0x20	; 32
    1a80:	90 e0       	ldi	r25, 0x00	; 0
    1a82:	0e 94 43 25 	call	0x4a86	;  0x4a86
    1a86:	0e 94 df 0c 	call	0x19be	;  0x19be
    1a8a:	28 96       	adiw	r28, 0x08	; 8
    1a8c:	e2 e0       	ldi	r30, 0x02	; 2
    1a8e:	0c 94 de 24 	jmp	0x49bc	;  0x49bc
    1a92:	0e 94 e7 0c 	call	0x19ce	;  0x19ce
    1a96:	08 95       	ret
    1a98:	8e e0       	ldi	r24, 0x0E	; 14
    1a9a:	90 e0       	ldi	r25, 0x00	; 0
    1a9c:	0e 94 13 25 	call	0x4a26	;  0x4a26
    1aa0:	91 e0       	ldi	r25, 0x01	; 1
    1aa2:	81 11       	cpse	r24, r1
    1aa4:	01 c0       	rjmp	.+2      	;  0x1aa8
    1aa6:	90 e0       	ldi	r25, 0x00	; 0
    1aa8:	89 2f       	mov	r24, r25
    1aaa:	08 95       	ret
    1aac:	68 2f       	mov	r22, r24
    1aae:	8e e0       	ldi	r24, 0x0E	; 14
    1ab0:	90 e0       	ldi	r25, 0x00	; 0
    1ab2:	0e 94 31 25 	call	0x4a62	;  0x4a62
    1ab6:	08 95       	ret
    1ab8:	a6 e0       	ldi	r26, 0x06	; 6
    1aba:	b0 e0       	ldi	r27, 0x00	; 0
    1abc:	e2 e6       	ldi	r30, 0x62	; 98
    1abe:	fd e0       	ldi	r31, 0x0D	; 13
    1ac0:	0c 94 c0 24 	jmp	0x4980	;  0x4980
    1ac4:	0e 94 c5 1b 	call	0x378a	;  0x378a
    1ac8:	8c 01       	movw	r16, r24
    1aca:	80 91 20 02 	lds	r24, 0x0220	;  0x800220
    1ace:	90 91 21 02 	lds	r25, 0x0221	;  0x800221
    1ad2:	80 17       	cp	r24, r16
    1ad4:	91 07       	cpc	r25, r17
    1ad6:	81 f0       	breq	.+32     	;  0x1af8
    1ad8:	19 82       	std	Y+1, r1	; 0x01
    1ada:	1a 82       	std	Y+2, r1	; 0x02
    1adc:	0e 94 c5 1b 	call	0x378a	;  0x378a
    1ae0:	68 2f       	mov	r22, r24
    1ae2:	49 81       	ldd	r20, Y+1	; 0x01
    1ae4:	5a 81       	ldd	r21, Y+2	; 0x02
    1ae6:	79 2f       	mov	r23, r25
    1ae8:	80 e0       	ldi	r24, 0x00	; 0
    1aea:	90 e0       	ldi	r25, 0x00	; 0
    1aec:	0e 94 46 03 	call	0x68c	;  0x68c
    1af0:	10 93 21 02 	sts	0x0221, r17	;  0x800221
    1af4:	00 93 20 02 	sts	0x0220, r16	;  0x800220
    1af8:	26 96       	adiw	r28, 0x06	; 6
    1afa:	e4 e0       	ldi	r30, 0x04	; 4
    1afc:	0c 94 dc 24 	jmp	0x49b8	;  0x49b8
    1b00:	0e 94 79 10 	call	0x20f2	;  0x20f2
    1b04:	60 93 2e 02 	sts	0x022E, r22	;  0x80022e
    1b08:	70 93 2f 02 	sts	0x022F, r23	;  0x80022f
    1b0c:	80 93 30 02 	sts	0x0230, r24	;  0x800230
    1b10:	90 93 31 02 	sts	0x0231, r25	;  0x800231
    1b14:	60 93 2a 02 	sts	0x022A, r22	;  0x80022a
    1b18:	70 93 2b 02 	sts	0x022B, r23	;  0x80022b
    1b1c:	80 93 2c 02 	sts	0x022C, r24	;  0x80022c
    1b20:	90 93 2d 02 	sts	0x022D, r25	;  0x80022d
    1b24:	08 95       	ret
    1b26:	08 95       	ret
    1b28:	08 95       	ret
    1b2a:	0e 94 93 0d 	call	0x1b26	;  0x1b26
    1b2e:	08 95       	ret
    1b30:	08 95       	ret
    1b32:	0e 94 98 0d 	call	0x1b30	;  0x1b30
    1b36:	08 95       	ret
    1b38:	81 e0       	ldi	r24, 0x01	; 1
    1b3a:	08 95       	ret
    1b3c:	83 e9       	ldi	r24, 0x93	; 147
    1b3e:	90 e1       	ldi	r25, 0x10	; 16
    1b40:	0e 94 84 14 	call	0x2908	;  0x2908
    1b44:	0e 94 94 0d 	call	0x1b28	;  0x1b28
    1b48:	0e 94 95 0d 	call	0x1b2a	;  0x1b2a
    1b4c:	08 95       	ret
    1b4e:	0e 94 68 12 	call	0x24d0	;  0x24d0
    1b52:	08 95       	ret
    1b54:	08 95       	ret
    1b56:	08 95       	ret
    1b58:	0e 94 aa 0d 	call	0x1b54	;  0x1b54
    1b5c:	0e 94 ab 0d 	call	0x1b56	;  0x1b56
    1b60:	08 95       	ret
    1b62:	0e 94 96 10 	call	0x212c	;  0x212c
    1b66:	0e 94 1a 03 	call	0x634	;  0x634
    1b6a:	08 95       	ret
    1b6c:	0e 94 bc 1b 	call	0x3778	;  0x3778
    1b70:	0e 94 53 10 	call	0x20a6	;  0x20a6
    1b74:	0e 94 80 12 	call	0x2500	;  0x2500
    1b78:	0e 94 c6 11 	call	0x238c	;  0x238c
    1b7c:	0e 94 b1 0d 	call	0x1b62	;  0x1b62
    1b80:	0e 94 0d 17 	call	0x2e1a	;  0x2e1a
    1b84:	0e 94 90 12 	call	0x2520	;  0x2520
    1b88:	0e 94 99 0d 	call	0x1b32	;  0x1b32
    1b8c:	08 95       	ret
    1b8e:	a6 e0       	ldi	r26, 0x06	; 6
    1b90:	b0 e0       	ldi	r27, 0x00	; 0
    1b92:	ed ec       	ldi	r30, 0xCD	; 205
    1b94:	fd e0       	ldi	r31, 0x0D	; 13
    1b96:	0c 94 b9 24 	jmp	0x4972	;  0x4972
    1b9a:	0e 94 9c 0d 	call	0x1b38	;  0x1b38
    1b9e:	81 11       	cpse	r24, r1
    1ba0:	0c c0       	rjmp	.+24     	;  0x1bba
    1ba2:	0e 94 5c 0d 	call	0x1ab8	;  0x1ab8
    1ba6:	0e 94 68 12 	call	0x24d0	;  0x24d0
    1baa:	0e 94 1f 16 	call	0x2c3e	;  0x2c3e
    1bae:	0e 94 2d 03 	call	0x65a	;  0x65a
    1bb2:	26 96       	adiw	r28, 0x06	; 6
    1bb4:	eb e0       	ldi	r30, 0x0B	; 11
    1bb6:	0c 94 d5 24 	jmp	0x49aa	;  0x49aa
    1bba:	0e 94 e9 11 	call	0x23d2	;  0x23d2
    1bbe:	82 e2       	ldi	r24, 0x22	; 34
    1bc0:	a8 2e       	mov	r10, r24
    1bc2:	82 e0       	ldi	r24, 0x02	; 2
    1bc4:	b8 2e       	mov	r11, r24
    1bc6:	75 01       	movw	r14, r10
    1bc8:	10 e0       	ldi	r17, 0x00	; 0
    1bca:	f7 01       	movw	r30, r14
    1bcc:	01 91       	ld	r16, Z+
    1bce:	7f 01       	movw	r14, r30
    1bd0:	81 2f       	mov	r24, r17
    1bd2:	0e 94 bb 10 	call	0x2176	;  0x2176
    1bd6:	1f 5f       	subi	r17, 0xFF	; 255
    1bd8:	18 30       	cpi	r17, 0x08	; 8
    1bda:	09 f4       	brne	.+2      	;  0x1bde
    1bdc:	41 c0       	rjmp	.+130    	;  0x1c60
    1bde:	08 17       	cp	r16, r24
    1be0:	a1 f3       	breq	.-24     	;  0x1bca
    1be2:	80 91 32 02 	lds	r24, 0x0232	;  0x800232
    1be6:	81 fd       	sbrc	r24, 1
    1be8:	0e 94 c1 10 	call	0x2182	;  0x2182
    1bec:	0e 94 a7 0d 	call	0x1b4e	;  0x1b4e
    1bf0:	c8 2e       	mov	r12, r24
    1bf2:	10 e0       	ldi	r17, 0x00	; 0
    1bf4:	99 24       	eor	r9, r9
    1bf6:	93 94       	inc	r9
    1bf8:	81 2f       	mov	r24, r17
    1bfa:	0e 94 bb 10 	call	0x2176	;  0x2176
    1bfe:	08 2f       	mov	r16, r24
    1c00:	f5 01       	movw	r30, r10
    1c02:	81 91       	ld	r24, Z+
    1c04:	5f 01       	movw	r10, r30
    1c06:	08 17       	cp	r16, r24
    1c08:	29 f1       	breq	.+74     	;  0x1c54
    1c0a:	d0 2e       	mov	r13, r16
    1c0c:	d8 26       	eor	r13, r24
    1c0e:	f1 2c       	mov	r15, r1
    1c10:	ee 24       	eor	r14, r14
    1c12:	e3 94       	inc	r14
    1c14:	8d 2d       	mov	r24, r13
    1c16:	8e 21       	and	r24, r14
    1c18:	a9 f0       	breq	.+42     	;  0x1c44
    1c1a:	cc 20       	and	r12, r12
    1c1c:	99 f0       	breq	.+38     	;  0x1c44
    1c1e:	f9 82       	std	Y+1, r15	; 0x01
    1c20:	1a 83       	std	Y+2, r17	; 0x02
    1c22:	0e 94 c5 1b 	call	0x378a	;  0x378a
    1c26:	9c 83       	std	Y+4, r25	; 0x04
    1c28:	8b 83       	std	Y+3, r24	; 0x03
    1c2a:	9d 82       	std	Y+5, r9	; 0x05
    1c2c:	91 e0       	ldi	r25, 0x01	; 1
    1c2e:	80 2f       	mov	r24, r16
    1c30:	8e 21       	and	r24, r14
    1c32:	09 f4       	brne	.+2      	;  0x1c36
    1c34:	90 e0       	ldi	r25, 0x00	; 0
    1c36:	49 81       	ldd	r20, Y+1	; 0x01
    1c38:	5a 81       	ldd	r21, Y+2	; 0x02
    1c3a:	6b 81       	ldd	r22, Y+3	; 0x03
    1c3c:	7c 81       	ldd	r23, Y+4	; 0x04
    1c3e:	8d 81       	ldd	r24, Y+5	; 0x05
    1c40:	0e 94 46 03 	call	0x68c	;  0x68c
    1c44:	f3 94       	inc	r15
    1c46:	ee 0c       	add	r14, r14
    1c48:	f5 e0       	ldi	r31, 0x05	; 5
    1c4a:	ff 12       	cpse	r15, r31
    1c4c:	e3 cf       	rjmp	.-58     	;  0x1c14
    1c4e:	f5 01       	movw	r30, r10
    1c50:	31 97       	sbiw	r30, 0x01	; 1
    1c52:	00 83       	st	Z, r16
    1c54:	1f 5f       	subi	r17, 0xFF	; 255
    1c56:	18 30       	cpi	r17, 0x08	; 8
    1c58:	79 f6       	brne	.-98     	;  0x1bf8
    1c5a:	0e 94 80 0d 	call	0x1b00	;  0x1b00
    1c5e:	a3 cf       	rjmp	.-186    	;  0x1ba6
    1c60:	08 13       	cpse	r16, r24
    1c62:	bf cf       	rjmp	.-130    	;  0x1be2
    1c64:	9e cf       	rjmp	.-196    	;  0x1ba2
    1c66:	1f 93       	push	r17
    1c68:	cf 93       	push	r28
    1c6a:	df 93       	push	r29
    1c6c:	0e 94 62 0f 	call	0x1ec4	;  0x1ec4
    1c70:	ec 01       	movw	r28, r24
    1c72:	c1 15       	cp	r28, r1
    1c74:	80 e5       	ldi	r24, 0x50	; 80
    1c76:	d8 07       	cpc	r29, r24
    1c78:	f0 f5       	brcc	.+124    	;  0x1cf6
    1c7a:	c1 15       	cp	r28, r1
    1c7c:	80 e4       	ldi	r24, 0x40	; 64
    1c7e:	d8 07       	cpc	r29, r24
    1c80:	08 f0       	brcs	.+2      	;  0x1c84
    1c82:	9c c0       	rjmp	.+312    	;  0x1dbc
    1c84:	c0 3e       	cpi	r28, 0xE0	; 224
    1c86:	d1 05       	cpc	r29, r1
    1c88:	20 f5       	brcc	.+72     	;  0x1cd2
    1c8a:	cd 3c       	cpi	r28, 0xCD	; 205
    1c8c:	d1 05       	cpc	r29, r1
    1c8e:	08 f0       	brcs	.+2      	;  0x1c92
    1c90:	82 c0       	rjmp	.+260    	;  0x1d96
    1c92:	c8 3a       	cpi	r28, 0xA8	; 168
    1c94:	d1 05       	cpc	r29, r1
    1c96:	78 f4       	brcc	.+30     	;  0x1cb6
    1c98:	c5 3a       	cpi	r28, 0xA5	; 165
    1c9a:	d1 05       	cpc	r29, r1
    1c9c:	08 f0       	brcs	.+2      	;  0x1ca0
    1c9e:	73 c0       	rjmp	.+230    	;  0x1d86
    1ca0:	c1 30       	cpi	r28, 0x01	; 1
    1ca2:	d1 05       	cpc	r29, r1
    1ca4:	19 f1       	breq	.+70     	;  0x1cec
    1ca6:	20 97       	sbiw	r28, 0x00	; 0
    1ca8:	09 f1       	breq	.+66     	;  0x1cec
    1caa:	c4 30       	cpi	r28, 0x04	; 4
    1cac:	d1 05       	cpc	r29, r1
    1cae:	f0 f4       	brcc	.+60     	;  0x1cec
    1cb0:	d0 e0       	ldi	r29, 0x00	; 0
    1cb2:	c0 e0       	ldi	r28, 0x00	; 0
    1cb4:	1b c0       	rjmp	.+54     	;  0x1cec
    1cb6:	c3 3c       	cpi	r28, 0xC3	; 195
    1cb8:	d1 05       	cpc	r29, r1
    1cba:	d0 f7       	brcc	.-12     	;  0x1cb0
    1cbc:	c8 5a       	subi	r28, 0xA8	; 168
    1cbe:	d0 e0       	ldi	r29, 0x00	; 0
    1cc0:	cc 0f       	add	r28, r28
    1cc2:	dd 1f       	adc	r29, r29
    1cc4:	cb 59       	subi	r28, 0x9B	; 155
    1cc6:	de 4f       	sbci	r29, 0xFE	; 254
    1cc8:	09 90       	ld	r0, Y+
    1cca:	d8 81       	ld	r29, Y
    1ccc:	c0 2d       	mov	r28, r0
    1cce:	d4 64       	ori	r29, 0x44	; 68
    1cd0:	0d c0       	rjmp	.+26     	;  0x1cec
    1cd2:	c1 15       	cp	r28, r1
    1cd4:	80 e2       	ldi	r24, 0x20	; 32
    1cd6:	d8 07       	cpc	r29, r24
    1cd8:	08 f0       	brcs	.+2      	;  0x1cdc
    1cda:	d1 c0       	rjmp	.+418    	;  0x1e7e
    1cdc:	c1 15       	cp	r28, r1
    1cde:	81 e0       	ldi	r24, 0x01	; 1
    1ce0:	d8 07       	cpc	r29, r24
    1ce2:	08 f0       	brcs	.+2      	;  0x1ce6
    1ce4:	5a c0       	rjmp	.+180    	;  0x1d9a
    1ce6:	c8 3e       	cpi	r28, 0xE8	; 232
    1ce8:	d1 05       	cpc	r29, r1
    1cea:	10 f7       	brcc	.-60     	;  0x1cb0
    1cec:	ce 01       	movw	r24, r28
    1cee:	df 91       	pop	r29
    1cf0:	cf 91       	pop	r28
    1cf2:	1f 91       	pop	r17
    1cf4:	08 95       	ret
    1cf6:	c0 36       	cpi	r28, 0x60	; 96
    1cf8:	82 e5       	ldi	r24, 0x52	; 82
    1cfa:	d8 07       	cpc	r29, r24
    1cfc:	18 f5       	brcc	.+70     	;  0x1d44
    1cfe:	c0 34       	cpi	r28, 0x40	; 64
    1d00:	82 e5       	ldi	r24, 0x52	; 82
    1d02:	d8 07       	cpc	r29, r24
    1d04:	08 f0       	brcs	.+2      	;  0x1d08
    1d06:	6b c0       	rjmp	.+214    	;  0x1dde
    1d08:	c0 32       	cpi	r28, 0x20	; 32
    1d0a:	82 e5       	ldi	r24, 0x52	; 82
    1d0c:	d8 07       	cpc	r29, r24
    1d0e:	08 f0       	brcs	.+2      	;  0x1d12
    1d10:	5f c0       	rjmp	.+190    	;  0x1dd0
    1d12:	c1 15       	cp	r28, r1
    1d14:	82 e5       	ldi	r24, 0x52	; 82
    1d16:	d8 07       	cpc	r29, r24
    1d18:	08 f4       	brcc	.+2      	;  0x1d1c
    1d1a:	97 c0       	rjmp	.+302    	;  0x1e4a
    1d1c:	2c 2f       	mov	r18, r28
    1d1e:	26 95       	lsr	r18
    1d20:	26 95       	lsr	r18
    1d22:	80 e2       	ldi	r24, 0x20	; 32
    1d24:	28 9f       	mul	r18, r24
    1d26:	90 01       	movw	r18, r0
    1d28:	11 24       	eor	r1, r1
    1d2a:	8c 2f       	mov	r24, r28
    1d2c:	83 70       	andi	r24, 0x03	; 3
    1d2e:	c1 e0       	ldi	r28, 0x01	; 1
    1d30:	d0 e0       	ldi	r29, 0x00	; 0
    1d32:	02 c0       	rjmp	.+4      	;  0x1d38
    1d34:	cc 0f       	add	r28, r28
    1d36:	dd 1f       	adc	r29, r29
    1d38:	8a 95       	dec	r24
    1d3a:	e2 f7       	brpl	.-8      	;  0x1d34
    1d3c:	c2 2b       	or	r28, r18
    1d3e:	d3 2b       	or	r29, r19
    1d40:	dd 68       	ori	r29, 0x8D	; 141
    1d42:	d4 cf       	rjmp	.-88     	;  0x1cec
    1d44:	c0 3a       	cpi	r28, 0xA0	; 160
    1d46:	82 e5       	ldi	r24, 0x52	; 82
    1d48:	d8 07       	cpc	r29, r24
    1d4a:	60 f4       	brcc	.+24     	;  0x1d64
    1d4c:	c0 38       	cpi	r28, 0x80	; 128
    1d4e:	82 e5       	ldi	r24, 0x52	; 82
    1d50:	d8 07       	cpc	r29, r24
    1d52:	08 f4       	brcc	.+2      	;  0x1d56
    1d54:	59 c0       	rjmp	.+178    	;  0x1e08
    1d56:	cf 71       	andi	r28, 0x1F	; 31
    1d58:	d0 e0       	ldi	r29, 0x00	; 0
    1d5a:	dc 2f       	mov	r29, r28
    1d5c:	cc 27       	eor	r28, r28
    1d5e:	c4 6f       	ori	r28, 0xF4	; 244
    1d60:	d0 6a       	ori	r29, 0xA0	; 160
    1d62:	c4 cf       	rjmp	.-120    	;  0x1cec
    1d64:	c0 3c       	cpi	r28, 0xC0	; 192
    1d66:	82 e5       	ldi	r24, 0x52	; 82
    1d68:	d8 07       	cpc	r29, r24
    1d6a:	08 f4       	brcc	.+2      	;  0x1d6e
    1d6c:	62 c0       	rjmp	.+196    	;  0x1e32
    1d6e:	c0 3e       	cpi	r28, 0xE0	; 224
    1d70:	82 e5       	ldi	r24, 0x52	; 82
    1d72:	d8 07       	cpc	r29, r24
    1d74:	08 f0       	brcs	.+2      	;  0x1d78
    1d76:	9c cf       	rjmp	.-200    	;  0x1cb0
    1d78:	dc 2f       	mov	r29, r28
    1d7a:	cc 27       	eor	r28, r28
    1d7c:	cc 27       	eor	r28, r28
    1d7e:	df 71       	andi	r29, 0x1F	; 31
    1d80:	c0 6f       	ori	r28, 0xF0	; 240
    1d82:	d0 6a       	ori	r29, 0xA0	; 160
    1d84:	b3 cf       	rjmp	.-154    	;  0x1cec
    1d86:	c5 5a       	subi	r28, 0xA5	; 165
    1d88:	d0 e0       	ldi	r29, 0x00	; 0
    1d8a:	c5 56       	subi	r28, 0x65	; 101
    1d8c:	de 4f       	sbci	r29, 0xFE	; 254
    1d8e:	c8 81       	ld	r28, Y
    1d90:	d0 e0       	ldi	r29, 0x00	; 0
    1d92:	d0 64       	ori	r29, 0x40	; 64
    1d94:	ab cf       	rjmp	.-170    	;  0x1cec
    1d96:	d0 65       	ori	r29, 0x50	; 80
    1d98:	a9 cf       	rjmp	.-174    	;  0x1cec
    1d9a:	8d 2f       	mov	r24, r29
    1d9c:	0e 94 04 10 	call	0x2008	;  0x2008
    1da0:	18 2f       	mov	r17, r24
    1da2:	ce 01       	movw	r24, r28
    1da4:	99 27       	eor	r25, r25
    1da6:	0e 94 62 0f 	call	0x1ec4	;  0x1ec4
    1daa:	c1 2f       	mov	r28, r17
    1dac:	d0 e0       	ldi	r29, 0x00	; 0
    1dae:	dc 2f       	mov	r29, r28
    1db0:	cc 27       	eor	r28, r28
    1db2:	cc 27       	eor	r28, r28
    1db4:	df 71       	andi	r29, 0x1F	; 31
    1db6:	c8 2b       	or	r28, r24
    1db8:	d9 2b       	or	r29, r25
    1dba:	98 cf       	rjmp	.-208    	;  0x1cec
    1dbc:	ce 01       	movw	r24, r28
    1dbe:	99 27       	eor	r25, r25
    1dc0:	0e 94 62 0f 	call	0x1ec4	;  0x1ec4
    1dc4:	cc 27       	eor	r28, r28
    1dc6:	df 70       	andi	r29, 0x0F	; 15
    1dc8:	c8 2b       	or	r28, r24
    1dca:	d9 2b       	or	r29, r25
    1dcc:	d0 6a       	ori	r29, 0xA0	; 160
    1dce:	8e cf       	rjmp	.-228    	;  0x1cec
    1dd0:	cf 71       	andi	r28, 0x1F	; 31
    1dd2:	d0 e0       	ldi	r29, 0x00	; 0
    1dd4:	dc 2f       	mov	r29, r28
    1dd6:	cc 27       	eor	r28, r28
    1dd8:	c1 6f       	ori	r28, 0xF1	; 241
    1dda:	d0 6a       	ori	r29, 0xA0	; 160
    1ddc:	87 cf       	rjmp	.-242    	;  0x1cec
    1dde:	2c 2f       	mov	r18, r28
    1de0:	26 95       	lsr	r18
    1de2:	26 95       	lsr	r18
    1de4:	27 70       	andi	r18, 0x07	; 7
    1de6:	80 e2       	ldi	r24, 0x20	; 32
    1de8:	28 9f       	mul	r18, r24
    1dea:	90 01       	movw	r18, r0
    1dec:	11 24       	eor	r1, r1
    1dee:	8c 2f       	mov	r24, r28
    1df0:	83 70       	andi	r24, 0x03	; 3
    1df2:	c1 e0       	ldi	r28, 0x01	; 1
    1df4:	d0 e0       	ldi	r29, 0x00	; 0
    1df6:	02 c0       	rjmp	.+4      	;  0x1dfc
    1df8:	cc 0f       	add	r28, r28
    1dfa:	dd 1f       	adc	r29, r29
    1dfc:	8a 95       	dec	r24
    1dfe:	e2 f7       	brpl	.-8      	;  0x1df8
    1e00:	c2 2b       	or	r28, r18
    1e02:	d3 2b       	or	r29, r19
    1e04:	dc 68       	ori	r29, 0x8C	; 140
    1e06:	72 cf       	rjmp	.-284    	;  0x1cec
    1e08:	2c 2f       	mov	r18, r28
    1e0a:	26 95       	lsr	r18
    1e0c:	26 95       	lsr	r18
    1e0e:	27 70       	andi	r18, 0x07	; 7
    1e10:	80 e2       	ldi	r24, 0x20	; 32
    1e12:	28 9f       	mul	r18, r24
    1e14:	90 01       	movw	r18, r0
    1e16:	11 24       	eor	r1, r1
    1e18:	8c 2f       	mov	r24, r28
    1e1a:	83 70       	andi	r24, 0x03	; 3
    1e1c:	c1 e0       	ldi	r28, 0x01	; 1
    1e1e:	d0 e0       	ldi	r29, 0x00	; 0
    1e20:	02 c0       	rjmp	.+4      	;  0x1e26
    1e22:	cc 0f       	add	r28, r28
    1e24:	dd 1f       	adc	r29, r29
    1e26:	8a 95       	dec	r24
    1e28:	e2 f7       	brpl	.-8      	;  0x1e22
    1e2a:	c2 2b       	or	r28, r18
    1e2c:	d3 2b       	or	r29, r19
    1e2e:	da 68       	ori	r29, 0x8A	; 138
    1e30:	5d cf       	rjmp	.-326    	;  0x1cec
    1e32:	8c 2f       	mov	r24, r28
    1e34:	8f 71       	andi	r24, 0x1F	; 31
    1e36:	0e 94 04 10 	call	0x2008	;  0x2008
    1e3a:	c8 2f       	mov	r28, r24
    1e3c:	d0 e0       	ldi	r29, 0x00	; 0
    1e3e:	dc 2f       	mov	r29, r28
    1e40:	cc 27       	eor	r28, r28
    1e42:	cc 27       	eor	r28, r28
    1e44:	df 71       	andi	r29, 0x1F	; 31
    1e46:	d0 62       	ori	r29, 0x20	; 32
    1e48:	51 cf       	rjmp	.-350    	;  0x1cec
    1e4a:	8c 2f       	mov	r24, r28
    1e4c:	8f 71       	andi	r24, 0x1F	; 31
    1e4e:	0e 94 04 10 	call	0x2008	;  0x2008
    1e52:	55 e0       	ldi	r21, 0x05	; 5
    1e54:	d6 95       	lsr	r29
    1e56:	c7 95       	ror	r28
    1e58:	5a 95       	dec	r21
    1e5a:	e1 f7       	brne	.-8      	;  0x1e54
    1e5c:	cf 70       	andi	r28, 0x0F	; 15
    1e5e:	d0 e0       	ldi	r29, 0x00	; 0
    1e60:	dc 2f       	mov	r29, r28
    1e62:	cc 27       	eor	r28, r28
    1e64:	28 2f       	mov	r18, r24
    1e66:	30 e0       	ldi	r19, 0x00	; 0
    1e68:	84 ff       	sbrs	r24, 4
    1e6a:	05 c0       	rjmp	.+10     	;  0x1e76
    1e6c:	44 e0       	ldi	r20, 0x04	; 4
    1e6e:	22 0f       	add	r18, r18
    1e70:	33 1f       	adc	r19, r19
    1e72:	4a 95       	dec	r20
    1e74:	e1 f7       	brne	.-8      	;  0x1e6e
    1e76:	c2 2b       	or	r28, r18
    1e78:	d3 2b       	or	r29, r19
    1e7a:	d0 69       	ori	r29, 0x90	; 144
    1e7c:	37 cf       	rjmp	.-402    	;  0x1cec
    1e7e:	8d 2f       	mov	r24, r29
    1e80:	8f 71       	andi	r24, 0x1F	; 31
    1e82:	0e 94 04 10 	call	0x2008	;  0x2008
    1e86:	18 2f       	mov	r17, r24
    1e88:	ce 01       	movw	r24, r28
    1e8a:	99 27       	eor	r25, r25
    1e8c:	0e 94 62 0f 	call	0x1ec4	;  0x1ec4
    1e90:	c1 2f       	mov	r28, r17
    1e92:	d0 e0       	ldi	r29, 0x00	; 0
    1e94:	dc 2f       	mov	r29, r28
    1e96:	cc 27       	eor	r28, r28
    1e98:	cc 27       	eor	r28, r28
    1e9a:	df 71       	andi	r29, 0x1F	; 31
    1e9c:	c8 2b       	or	r28, r24
    1e9e:	d9 2b       	or	r29, r25
    1ea0:	d2 cf       	rjmp	.-92     	;  0x1e46
    1ea2:	46 2f       	mov	r20, r22
    1ea4:	78 30       	cpi	r23, 0x08	; 8
    1ea6:	30 f4       	brcc	.+12     	;  0x1eb4
    1ea8:	65 30       	cpi	r22, 0x05	; 5
    1eaa:	20 f4       	brcc	.+8      	;  0x1eb4
    1eac:	67 2f       	mov	r22, r23
    1eae:	0e 94 1a 02 	call	0x434	;  0x434
    1eb2:	08 95       	ret
    1eb4:	90 e0       	ldi	r25, 0x00	; 0
    1eb6:	80 e0       	ldi	r24, 0x00	; 0
    1eb8:	08 95       	ret
    1eba:	0e 94 51 0f 	call	0x1ea2	;  0x1ea2
    1ebe:	0e 94 33 0e 	call	0x1c66	;  0x1c66
    1ec2:	08 95       	ret
    1ec4:	82 38       	cpi	r24, 0x82	; 130
    1ec6:	91 05       	cpc	r25, r1
    1ec8:	b9 f1       	breq	.+110    	;  0x1f38
    1eca:	b0 f4       	brcc	.+44     	;  0x1ef8
    1ecc:	81 33       	cpi	r24, 0x31	; 49
    1ece:	91 05       	cpc	r25, r1
    1ed0:	09 f4       	brne	.+2      	;  0x1ed4
    1ed2:	7d c0       	rjmp	.+250    	;  0x1fce
    1ed4:	48 f4       	brcc	.+18     	;  0x1ee8
    1ed6:	89 32       	cpi	r24, 0x29	; 41
    1ed8:	91 05       	cpc	r25, r1
    1eda:	09 f4       	brne	.+2      	;  0x1ede
    1edc:	6d c0       	rjmp	.+218    	;  0x1fb8
    1ede:	8a 32       	cpi	r24, 0x2A	; 42
    1ee0:	91 05       	cpc	r25, r1
    1ee2:	09 f4       	brne	.+2      	;  0x1ee6
    1ee4:	7b c0       	rjmp	.+246    	;  0x1fdc
    1ee6:	08 95       	ret
    1ee8:	85 33       	cpi	r24, 0x35	; 53
    1eea:	91 05       	cpc	r25, r1
    1eec:	09 f4       	brne	.+2      	;  0x1ef0
    1eee:	5f c0       	rjmp	.+190    	;  0x1fae
    1ef0:	89 33       	cpi	r24, 0x39	; 57
    1ef2:	91 05       	cpc	r25, r1
    1ef4:	09 f1       	breq	.+66     	;  0x1f38
    1ef6:	08 95       	ret
    1ef8:	83 3e       	cpi	r24, 0xE3	; 227
    1efa:	91 05       	cpc	r25, r1
    1efc:	d9 f1       	breq	.+118    	;  0x1f74
    1efe:	38 f4       	brcc	.+14     	;  0x1f0e
    1f00:	80 3e       	cpi	r24, 0xE0	; 224
    1f02:	91 05       	cpc	r25, r1
    1f04:	29 f1       	breq	.+74     	;  0x1f50
    1f06:	82 3e       	cpi	r24, 0xE2	; 226
    1f08:	91 05       	cpc	r25, r1
    1f0a:	79 f1       	breq	.+94     	;  0x1f6a
    1f0c:	08 95       	ret
    1f0e:	86 3e       	cpi	r24, 0xE6	; 230
    1f10:	91 05       	cpc	r25, r1
    1f12:	d9 f1       	breq	.+118    	;  0x1f8a
    1f14:	87 3e       	cpi	r24, 0xE7	; 231
    1f16:	91 05       	cpc	r25, r1
    1f18:	09 f4       	brne	.+2      	;  0x1f1c
    1f1a:	3e c0       	rjmp	.+124    	;  0x1f98
    1f1c:	84 3e       	cpi	r24, 0xE4	; 228
    1f1e:	91 05       	cpc	r25, r1
    1f20:	41 f5       	brne	.+80     	;  0x1f72
    1f22:	20 91 81 02 	lds	r18, 0x0281	;  0x800281
    1f26:	21 ff       	sbrs	r18, 1
    1f28:	24 c0       	rjmp	.+72     	;  0x1f72
    1f2a:	80 91 80 02 	lds	r24, 0x0280	;  0x800280
    1f2e:	84 fd       	sbrc	r24, 4
    1f30:	19 c0       	rjmp	.+50     	;  0x1f64
    1f32:	87 ee       	ldi	r24, 0xE7	; 231
    1f34:	90 e0       	ldi	r25, 0x00	; 0
    1f36:	08 95       	ret
    1f38:	20 91 80 02 	lds	r18, 0x0280	;  0x800280
    1f3c:	23 70       	andi	r18, 0x03	; 3
    1f3e:	09 f0       	breq	.+2      	;  0x1f42
    1f40:	5a c0       	rjmp	.+180    	;  0x1ff6
    1f42:	20 91 81 02 	lds	r18, 0x0281	;  0x800281
    1f46:	23 ff       	sbrs	r18, 3
    1f48:	14 c0       	rjmp	.+40     	;  0x1f72
    1f4a:	89 e2       	ldi	r24, 0x29	; 41
    1f4c:	90 e0       	ldi	r25, 0x00	; 0
    1f4e:	08 95       	ret
    1f50:	20 91 80 02 	lds	r18, 0x0280	;  0x800280
    1f54:	20 fd       	sbrc	r18, 0
    1f56:	38 c0       	rjmp	.+112    	;  0x1fc8
    1f58:	30 91 81 02 	lds	r19, 0x0281	;  0x800281
    1f5c:	30 ff       	sbrs	r19, 0
    1f5e:	09 c0       	rjmp	.+18     	;  0x1f72
    1f60:	24 ff       	sbrs	r18, 4
    1f62:	43 c0       	rjmp	.+134    	;  0x1fea
    1f64:	90 e0       	ldi	r25, 0x00	; 0
    1f66:	80 e0       	ldi	r24, 0x00	; 0
    1f68:	08 95       	ret
    1f6a:	20 91 80 02 	lds	r18, 0x0280	;  0x800280
    1f6e:	22 fd       	sbrc	r18, 2
    1f70:	f7 cf       	rjmp	.-18     	;  0x1f60
    1f72:	08 95       	ret
    1f74:	20 91 80 02 	lds	r18, 0x0280	;  0x800280
    1f78:	22 fd       	sbrc	r18, 2
    1f7a:	3a c0       	rjmp	.+116    	;  0x1ff0
    1f7c:	30 91 81 02 	lds	r19, 0x0281	;  0x800281
    1f80:	30 fd       	sbrc	r19, 0
    1f82:	39 c0       	rjmp	.+114    	;  0x1ff6
    1f84:	24 ff       	sbrs	r18, 4
    1f86:	f5 cf       	rjmp	.-22     	;  0x1f72
    1f88:	ed cf       	rjmp	.-38     	;  0x1f64
    1f8a:	20 91 80 02 	lds	r18, 0x0280	;  0x800280
    1f8e:	23 ff       	sbrs	r18, 3
    1f90:	f0 cf       	rjmp	.-32     	;  0x1f72
    1f92:	24 fd       	sbrc	r18, 4
    1f94:	e7 cf       	rjmp	.-50     	;  0x1f64
    1f96:	cd cf       	rjmp	.-102    	;  0x1f32
    1f98:	20 91 80 02 	lds	r18, 0x0280	;  0x800280
    1f9c:	23 fd       	sbrc	r18, 3
    1f9e:	2e c0       	rjmp	.+92     	;  0x1ffc
    1fa0:	30 91 81 02 	lds	r19, 0x0281	;  0x800281
    1fa4:	31 ff       	sbrs	r19, 1
    1fa6:	ee cf       	rjmp	.-36     	;  0x1f84
    1fa8:	84 ee       	ldi	r24, 0xE4	; 228
    1faa:	90 e0       	ldi	r25, 0x00	; 0
    1fac:	08 95       	ret
    1fae:	20 91 80 02 	lds	r18, 0x0280	;  0x800280
    1fb2:	25 ff       	sbrs	r18, 5
    1fb4:	de cf       	rjmp	.-68     	;  0x1f72
    1fb6:	c9 cf       	rjmp	.-110    	;  0x1f4a
    1fb8:	20 91 80 02 	lds	r18, 0x0280	;  0x800280
    1fbc:	25 fd       	sbrc	r18, 5
    1fbe:	21 c0       	rjmp	.+66     	;  0x2002
    1fc0:	20 91 81 02 	lds	r18, 0x0281	;  0x800281
    1fc4:	23 ff       	sbrs	r18, 3
    1fc6:	d5 cf       	rjmp	.-86     	;  0x1f72
    1fc8:	89 e3       	ldi	r24, 0x39	; 57
    1fca:	90 e0       	ldi	r25, 0x00	; 0
    1fcc:	d2 cf       	rjmp	.-92     	;  0x1f72
    1fce:	20 91 80 02 	lds	r18, 0x0280	;  0x800280
    1fd2:	26 ff       	sbrs	r18, 6
    1fd4:	ce cf       	rjmp	.-100    	;  0x1f72
    1fd6:	8a e2       	ldi	r24, 0x2A	; 42
    1fd8:	90 e0       	ldi	r25, 0x00	; 0
    1fda:	08 95       	ret
    1fdc:	20 91 80 02 	lds	r18, 0x0280	;  0x800280
    1fe0:	26 ff       	sbrs	r18, 6
    1fe2:	c7 cf       	rjmp	.-114    	;  0x1f72
    1fe4:	81 e3       	ldi	r24, 0x31	; 49
    1fe6:	90 e0       	ldi	r25, 0x00	; 0
    1fe8:	08 95       	ret
    1fea:	83 ee       	ldi	r24, 0xE3	; 227
    1fec:	90 e0       	ldi	r25, 0x00	; 0
    1fee:	08 95       	ret
    1ff0:	82 ee       	ldi	r24, 0xE2	; 226
    1ff2:	90 e0       	ldi	r25, 0x00	; 0
    1ff4:	08 95       	ret
    1ff6:	80 ee       	ldi	r24, 0xE0	; 224
    1ff8:	90 e0       	ldi	r25, 0x00	; 0
    1ffa:	08 95       	ret
    1ffc:	86 ee       	ldi	r24, 0xE6	; 230
    1ffe:	90 e0       	ldi	r25, 0x00	; 0
    2000:	08 95       	ret
    2002:	85 e3       	ldi	r24, 0x35	; 53
    2004:	90 e0       	ldi	r25, 0x00	; 0
    2006:	08 95       	ret
    2008:	90 91 80 02 	lds	r25, 0x0280	;  0x800280
    200c:	92 ff       	sbrs	r25, 2
    200e:	10 c0       	rjmp	.+32     	;  0x2030
    2010:	41 e0       	ldi	r20, 0x01	; 1
    2012:	28 2f       	mov	r18, r24
    2014:	24 71       	andi	r18, 0x14	; 20
    2016:	24 30       	cpi	r18, 0x04	; 4
    2018:	09 f0       	breq	.+2      	;  0x201c
    201a:	40 e0       	ldi	r20, 0x00	; 0
    201c:	31 e0       	ldi	r19, 0x01	; 1
    201e:	28 2f       	mov	r18, r24
    2020:	28 71       	andi	r18, 0x18	; 24
    2022:	28 30       	cpi	r18, 0x08	; 8
    2024:	09 f0       	breq	.+2      	;  0x2028
    2026:	30 e0       	ldi	r19, 0x00	; 0
    2028:	43 17       	cp	r20, r19
    202a:	11 f0       	breq	.+4      	;  0x2030
    202c:	2c e0       	ldi	r18, 0x0C	; 12
    202e:	82 27       	eor	r24, r18
    2030:	93 ff       	sbrs	r25, 3
    2032:	10 c0       	rjmp	.+32     	;  0x2054
    2034:	41 e0       	ldi	r20, 0x01	; 1
    2036:	28 2f       	mov	r18, r24
    2038:	24 71       	andi	r18, 0x14	; 20
    203a:	24 31       	cpi	r18, 0x14	; 20
    203c:	09 f0       	breq	.+2      	;  0x2040
    203e:	40 e0       	ldi	r20, 0x00	; 0
    2040:	31 e0       	ldi	r19, 0x01	; 1
    2042:	28 2f       	mov	r18, r24
    2044:	28 71       	andi	r18, 0x18	; 24
    2046:	28 31       	cpi	r18, 0x18	; 24
    2048:	09 f0       	breq	.+2      	;  0x204c
    204a:	30 e0       	ldi	r19, 0x00	; 0
    204c:	43 17       	cp	r20, r19
    204e:	11 f0       	breq	.+4      	;  0x2054
    2050:	2c e0       	ldi	r18, 0x0C	; 12
    2052:	82 27       	eor	r24, r18
    2054:	30 91 81 02 	lds	r19, 0x0281	;  0x800281
    2058:	30 ff       	sbrs	r19, 0
    205a:	10 c0       	rjmp	.+32     	;  0x207c
    205c:	51 e0       	ldi	r21, 0x01	; 1
    205e:	28 2f       	mov	r18, r24
    2060:	21 71       	andi	r18, 0x11	; 17
    2062:	21 30       	cpi	r18, 0x01	; 1
    2064:	09 f0       	breq	.+2      	;  0x2068
    2066:	50 e0       	ldi	r21, 0x00	; 0
    2068:	41 e0       	ldi	r20, 0x01	; 1
    206a:	28 2f       	mov	r18, r24
    206c:	28 71       	andi	r18, 0x18	; 24
    206e:	28 30       	cpi	r18, 0x08	; 8
    2070:	09 f0       	breq	.+2      	;  0x2074
    2072:	40 e0       	ldi	r20, 0x00	; 0
    2074:	54 17       	cp	r21, r20
    2076:	11 f0       	breq	.+4      	;  0x207c
    2078:	29 e0       	ldi	r18, 0x09	; 9
    207a:	82 27       	eor	r24, r18
    207c:	31 ff       	sbrs	r19, 1
    207e:	10 c0       	rjmp	.+32     	;  0x20a0
    2080:	41 e0       	ldi	r20, 0x01	; 1
    2082:	28 2f       	mov	r18, r24
    2084:	21 71       	andi	r18, 0x11	; 17
    2086:	21 31       	cpi	r18, 0x11	; 17
    2088:	09 f0       	breq	.+2      	;  0x208c
    208a:	40 e0       	ldi	r20, 0x00	; 0
    208c:	31 e0       	ldi	r19, 0x01	; 1
    208e:	28 2f       	mov	r18, r24
    2090:	28 71       	andi	r18, 0x18	; 24
    2092:	28 31       	cpi	r18, 0x18	; 24
    2094:	09 f0       	breq	.+2      	;  0x2098
    2096:	30 e0       	ldi	r19, 0x00	; 0
    2098:	43 17       	cp	r20, r19
    209a:	11 f0       	breq	.+4      	;  0x20a0
    209c:	29 e0       	ldi	r18, 0x09	; 9
    209e:	82 27       	eor	r24, r18
    20a0:	94 fd       	sbrc	r25, 4
    20a2:	87 7e       	andi	r24, 0xE7	; 231
    20a4:	08 95       	ret
    20a6:	10 92 7c 02 	sts	0x027C, r1	;  0x80027c
    20aa:	10 92 7d 02 	sts	0x027D, r1	;  0x80027d
    20ae:	10 92 7e 02 	sts	0x027E, r1	;  0x80027e
    20b2:	10 92 7f 02 	sts	0x027F, r1	;  0x80027f
    20b6:	08 95       	ret
    20b8:	cf 92       	push	r12
    20ba:	df 92       	push	r13
    20bc:	ef 92       	push	r14
    20be:	ff 92       	push	r15
    20c0:	6b 01       	movw	r12, r22
    20c2:	7c 01       	movw	r14, r24
    20c4:	0e 94 68 12 	call	0x24d0	;  0x24d0
    20c8:	81 11       	cpse	r24, r1
    20ca:	0e c0       	rjmp	.+28     	;  0x20e8
    20cc:	0e 94 d1 1b 	call	0x37a2	;  0x37a2
    20d0:	c6 1a       	sub	r12, r22
    20d2:	d7 0a       	sbc	r13, r23
    20d4:	e8 0a       	sbc	r14, r24
    20d6:	f9 0a       	sbc	r15, r25
    20d8:	c0 92 7c 02 	sts	0x027C, r12	;  0x80027c
    20dc:	d0 92 7d 02 	sts	0x027D, r13	;  0x80027d
    20e0:	e0 92 7e 02 	sts	0x027E, r14	;  0x80027e
    20e4:	f0 92 7f 02 	sts	0x027F, r15	;  0x80027f
    20e8:	ff 90       	pop	r15
    20ea:	ef 90       	pop	r14
    20ec:	df 90       	pop	r13
    20ee:	cf 90       	pop	r12
    20f0:	08 95       	ret
    20f2:	0f 93       	push	r16
    20f4:	1f 93       	push	r17
    20f6:	0e 94 68 12 	call	0x24d0	;  0x24d0
    20fa:	88 23       	and	r24, r24
    20fc:	29 f0       	breq	.+10     	;  0x2108
    20fe:	0e 94 d1 1b 	call	0x37a2	;  0x37a2
    2102:	1f 91       	pop	r17
    2104:	0f 91       	pop	r16
    2106:	08 95       	ret
    2108:	0e 94 d1 1b 	call	0x37a2	;  0x37a2
    210c:	00 91 7c 02 	lds	r16, 0x027C	;  0x80027c
    2110:	10 91 7d 02 	lds	r17, 0x027D	;  0x80027d
    2114:	20 91 7e 02 	lds	r18, 0x027E	;  0x80027e
    2118:	30 91 7f 02 	lds	r19, 0x027F	;  0x80027f
    211c:	60 0f       	add	r22, r16
    211e:	71 1f       	adc	r23, r17
    2120:	82 1f       	adc	r24, r18
    2122:	93 1f       	adc	r25, r19
    2124:	ee cf       	rjmp	.-36     	;  0x2102
    2126:	80 e0       	ldi	r24, 0x00	; 0
    2128:	08 95       	ret
    212a:	08 95       	ret
    212c:	0e 94 a5 0c 	call	0x194a	;  0x194a
    2130:	81 11       	cpse	r24, r1
    2132:	02 c0       	rjmp	.+4      	;  0x2138
    2134:	0e 94 49 0d 	call	0x1a92	;  0x1a92
    2138:	0e 94 b0 0c 	call	0x1960	;  0x1960
    213c:	80 93 32 02 	sts	0x0232, r24	;  0x800232
    2140:	0e 94 c0 0c 	call	0x1980	;  0x1980
    2144:	90 93 81 02 	sts	0x0281, r25	;  0x800281
    2148:	80 93 80 02 	sts	0x0280, r24	;  0x800280
    214c:	0e 94 95 10 	call	0x212a	;  0x212a
    2150:	0e 94 b5 0c 	call	0x196a	;  0x196a
    2154:	90 e0       	ldi	r25, 0x00	; 0
    2156:	0e 94 3c 07 	call	0xe78	;  0xe78
    215a:	80 91 c6 01 	lds	r24, 0x01C6	;  0x8001c6
    215e:	90 91 c7 01 	lds	r25, 0x01C7	;  0x8001c7
    2162:	0e 94 5a 07 	call	0xeb4	;  0xeb4
    2166:	08 95       	ret
    2168:	0e 94 dd 01 	call	0x3ba	;  0x3ba
    216c:	08 95       	ret
    216e:	08 95       	ret
    2170:	0e 94 b7 10 	call	0x216e	;  0x216e
    2174:	08 95       	ret
    2176:	e8 2f       	mov	r30, r24
    2178:	f0 e0       	ldi	r31, 0x00	; 0
    217a:	e5 57       	subi	r30, 0x75	; 117
    217c:	fd 4f       	sbci	r31, 0xFD	; 253
    217e:	80 81       	ld	r24, Z
    2180:	08 95       	ret
    2182:	08 95       	ret
    2184:	80 ea       	ldi	r24, 0xA0	; 160
    2186:	8a 95       	dec	r24
    2188:	f1 f7       	brne	.-4      	;  0x2186
    218a:	08 95       	ret
    218c:	00 c0       	rjmp	.+0      	;  0x218e
    218e:	08 95       	ret
    2190:	0e 94 c2 10 	call	0x2184	;  0x2184
    2194:	08 95       	ret
    2196:	08 95       	ret
    2198:	0e 94 cb 10 	call	0x2196	;  0x2196
    219c:	08 95       	ret
    219e:	ef 92       	push	r14
    21a0:	ff 92       	push	r15
    21a2:	1f 93       	push	r17
    21a4:	cf 93       	push	r28
    21a6:	df 93       	push	r29
    21a8:	00 d0       	rcall	.+0      	;  0x21aa
    21aa:	00 d0       	rcall	.+0      	;  0x21ac
    21ac:	cd b7       	in	r28, 0x3d	; 61
    21ae:	de b7       	in	r29, 0x3e	; 62
    21b0:	0e 94 68 12 	call	0x24d0	;  0x24d0
    21b4:	18 2f       	mov	r17, r24
    21b6:	60 91 93 02 	lds	r22, 0x0293	;  0x800293
    21ba:	88 23       	and	r24, r24
    21bc:	09 f4       	brne	.+2      	;  0x21c0
    21be:	47 c0       	rjmp	.+142    	;  0x224e
    21c0:	19 82       	std	Y+1, r1	; 0x01
    21c2:	1a 82       	std	Y+2, r1	; 0x02
    21c4:	1b 82       	std	Y+3, r1	; 0x03
    21c6:	1c 82       	std	Y+4, r1	; 0x04
    21c8:	86 2f       	mov	r24, r22
    21ca:	90 e0       	ldi	r25, 0x00	; 0
    21cc:	9e 01       	movw	r18, r28
    21ce:	2f 5f       	subi	r18, 0xFF	; 255
    21d0:	3f 4f       	sbci	r19, 0xFF	; 255
    21d2:	79 01       	movw	r14, r18
    21d4:	b9 01       	movw	r22, r18
    21d6:	85 57       	subi	r24, 0x75	; 117
    21d8:	9d 4f       	sbci	r25, 0xFD	; 253
    21da:	0e 94 9e 12 	call	0x253c	;  0x253c
    21de:	88 23       	and	r24, r24
    21e0:	e9 f0       	breq	.+58     	;  0x221c
    21e2:	80 91 82 02 	lds	r24, 0x0282	;  0x800282
    21e6:	90 e0       	ldi	r25, 0x00	; 0
    21e8:	44 e0       	ldi	r20, 0x04	; 4
    21ea:	50 e0       	ldi	r21, 0x00	; 0
    21ec:	b7 01       	movw	r22, r14
    21ee:	85 57       	subi	r24, 0x75	; 117
    21f0:	9d 4f       	sbci	r25, 0xFD	; 253
    21f2:	0e 94 fd 24 	call	0x49fa	;  0x49fa
    21f6:	21 e0       	ldi	r18, 0x01	; 1
    21f8:	20 93 33 02 	sts	0x0233, r18	;  0x800233
    21fc:	89 2b       	or	r24, r25
    21fe:	c9 f4       	brne	.+50     	;  0x2232
    2200:	10 e0       	ldi	r17, 0x00	; 0
    2202:	0e 94 b8 10 	call	0x2170	;  0x2170
    2206:	81 2f       	mov	r24, r17
    2208:	0f 90       	pop	r0
    220a:	0f 90       	pop	r0
    220c:	0f 90       	pop	r0
    220e:	0f 90       	pop	r0
    2210:	df 91       	pop	r29
    2212:	cf 91       	pop	r28
    2214:	1f 91       	pop	r17
    2216:	ff 90       	pop	r15
    2218:	ef 90       	pop	r14
    221a:	08 95       	ret
    221c:	80 91 33 02 	lds	r24, 0x0233	;  0x800233
    2220:	88 23       	and	r24, r24
    2222:	71 f3       	breq	.-36     	;  0x2200
    2224:	84 e0       	ldi	r24, 0x04	; 4
    2226:	f7 01       	movw	r30, r14
    2228:	11 92       	st	Z+, r1
    222a:	8a 95       	dec	r24
    222c:	e9 f7       	brne	.-6      	;  0x2228
    222e:	10 92 33 02 	sts	0x0233, r1	;  0x800233
    2232:	e0 91 82 02 	lds	r30, 0x0282	;  0x800282
    2236:	f0 e0       	ldi	r31, 0x00	; 0
    2238:	e5 57       	subi	r30, 0x75	; 117
    223a:	fd 4f       	sbci	r31, 0xFD	; 253
    223c:	89 81       	ldd	r24, Y+1	; 0x01
    223e:	9a 81       	ldd	r25, Y+2	; 0x02
    2240:	ab 81       	ldd	r26, Y+3	; 0x03
    2242:	bc 81       	ldd	r27, Y+4	; 0x04
    2244:	80 83       	st	Z, r24
    2246:	91 83       	std	Z+1, r25	; 0x01
    2248:	a2 83       	std	Z+2, r26	; 0x02
    224a:	b3 83       	std	Z+3, r27	; 0x03
    224c:	da cf       	rjmp	.-76     	;  0x2202
    224e:	70 e0       	ldi	r23, 0x00	; 0
    2250:	65 57       	subi	r22, 0x75	; 117
    2252:	7d 4f       	sbci	r23, 0xFD	; 253
    2254:	80 91 82 02 	lds	r24, 0x0282	;  0x800282
    2258:	90 e0       	ldi	r25, 0x00	; 0
    225a:	85 57       	subi	r24, 0x75	; 117
    225c:	9d 4f       	sbci	r25, 0xFD	; 253
    225e:	0e 94 25 13 	call	0x264a	;  0x264a
    2262:	0e 94 cc 10 	call	0x2198	;  0x2198
    2266:	cf cf       	rjmp	.-98     	;  0x2206
    2268:	f8 94       	cli
    226a:	e8 2f       	mov	r30, r24
    226c:	e2 95       	swap	r30
    226e:	ef 70       	andi	r30, 0x0F	; 15
    2270:	f0 e0       	ldi	r31, 0x00	; 0
    2272:	31 a1       	ldd	r19, Z+33	; 0x21
    2274:	28 2f       	mov	r18, r24
    2276:	2f 70       	andi	r18, 0x0F	; 15
    2278:	81 e0       	ldi	r24, 0x01	; 1
    227a:	90 e0       	ldi	r25, 0x00	; 0
    227c:	01 c0       	rjmp	.+2      	;  0x2280
    227e:	88 0f       	add	r24, r24
    2280:	2a 95       	dec	r18
    2282:	ea f7       	brpl	.-6      	;  0x227e
    2284:	98 2f       	mov	r25, r24
    2286:	90 95       	com	r25
    2288:	93 23       	and	r25, r19
    228a:	91 a3       	std	Z+33, r25	; 0x21
    228c:	92 a1       	ldd	r25, Z+34	; 0x22
    228e:	89 2b       	or	r24, r25
    2290:	82 a3       	std	Z+34, r24	; 0x22
    2292:	78 94       	sei
    2294:	08 95       	ret
    2296:	cf 93       	push	r28
    2298:	df 93       	push	r29
    229a:	82 e3       	ldi	r24, 0x32	; 50
    229c:	0e 94 34 11 	call	0x2268	;  0x2268
    22a0:	86 e3       	ldi	r24, 0x36	; 54
    22a2:	0e 94 34 11 	call	0x2268	;  0x2268
    22a6:	84 e3       	ldi	r24, 0x34	; 52
    22a8:	0e 94 34 11 	call	0x2268	;  0x2268
    22ac:	85 e3       	ldi	r24, 0x35	; 53
    22ae:	0e 94 34 11 	call	0x2268	;  0x2268
    22b2:	ce e9       	ldi	r28, 0x9E	; 158
    22b4:	d1 e0       	ldi	r29, 0x01	; 1
    22b6:	89 91       	ld	r24, Y+
    22b8:	8f 3f       	cpi	r24, 0xFF	; 255
    22ba:	11 f0       	breq	.+4      	;  0x22c0
    22bc:	0e 94 34 11 	call	0x2268	;  0x2268
    22c0:	81 e0       	ldi	r24, 0x01	; 1
    22c2:	c3 3a       	cpi	r28, 0xA3	; 163
    22c4:	d8 07       	cpc	r29, r24
    22c6:	b9 f7       	brne	.-18     	;  0x22b6
    22c8:	df 91       	pop	r29
    22ca:	cf 91       	pop	r28
    22cc:	08 95       	ret
    22ce:	b0 e0       	ldi	r27, 0x00	; 0
    22d0:	a0 e0       	ldi	r26, 0x00	; 0
    22d2:	ed e6       	ldi	r30, 0x6D	; 109
    22d4:	f1 e1       	ldi	r31, 0x11	; 17
    22d6:	0c 94 bc 24 	jmp	0x4978	;  0x4978
    22da:	ec 01       	movw	r28, r24
    22dc:	d6 2e       	mov	r13, r22
    22de:	06 2f       	mov	r16, r22
    22e0:	10 e0       	ldi	r17, 0x00	; 0
    22e2:	c8 01       	movw	r24, r16
    22e4:	8d 55       	subi	r24, 0x5D	; 93
    22e6:	9e 4f       	sbci	r25, 0xFE	; 254
    22e8:	7c 01       	movw	r14, r24
    22ea:	fc 01       	movw	r30, r24
    22ec:	80 81       	ld	r24, Z
    22ee:	8f 3f       	cpi	r24, 0xFF	; 255
    22f0:	09 f4       	brne	.+2      	;  0x22f4
    22f2:	45 c0       	rjmp	.+138    	;  0x237e
    22f4:	f8 94       	cli
    22f6:	e8 2f       	mov	r30, r24
    22f8:	e2 95       	swap	r30
    22fa:	ef 70       	andi	r30, 0x0F	; 15
    22fc:	f0 e0       	ldi	r31, 0x00	; 0
    22fe:	91 a1       	ldd	r25, Z+33	; 0x21
    2300:	8f 70       	andi	r24, 0x0F	; 15
    2302:	21 e0       	ldi	r18, 0x01	; 1
    2304:	30 e0       	ldi	r19, 0x00	; 0
    2306:	01 c0       	rjmp	.+2      	;  0x230a
    2308:	22 0f       	add	r18, r18
    230a:	8a 95       	dec	r24
    230c:	ea f7       	brpl	.-6      	;  0x2308
    230e:	89 2f       	mov	r24, r25
    2310:	82 2b       	or	r24, r18
    2312:	81 a3       	std	Z+33, r24	; 0x21
    2314:	82 a1       	ldd	r24, Z+34	; 0x22
    2316:	20 95       	com	r18
    2318:	28 23       	and	r18, r24
    231a:	22 a3       	std	Z+34, r18	; 0x22
    231c:	78 94       	sei
    231e:	0e 94 c6 10 	call	0x218c	;  0x218c
    2322:	ee e9       	ldi	r30, 0x9E	; 158
    2324:	f1 e0       	ldi	r31, 0x01	; 1
    2326:	43 ea       	ldi	r20, 0xA3	; 163
    2328:	51 e0       	ldi	r21, 0x01	; 1
    232a:	31 e0       	ldi	r19, 0x01	; 1
    232c:	c1 2c       	mov	r12, r1
    232e:	21 91       	ld	r18, Z+
    2330:	2f 3f       	cpi	r18, 0xFF	; 255
    2332:	51 f1       	breq	.+84     	;  0x2388
    2334:	a2 2f       	mov	r26, r18
    2336:	a2 95       	swap	r26
    2338:	af 70       	andi	r26, 0x0F	; 15
    233a:	b0 e0       	ldi	r27, 0x00	; 0
    233c:	90 96       	adiw	r26, 0x20	; 32
    233e:	8c 91       	ld	r24, X
    2340:	90 e0       	ldi	r25, 0x00	; 0
    2342:	2f 70       	andi	r18, 0x0F	; 15
    2344:	02 c0       	rjmp	.+4      	;  0x234a
    2346:	95 95       	asr	r25
    2348:	87 95       	ror	r24
    234a:	2a 95       	dec	r18
    234c:	e2 f7       	brpl	.-8      	;  0x2346
    234e:	80 fd       	sbrc	r24, 0
    2350:	1b c0       	rjmp	.+54     	;  0x2388
    2352:	83 2f       	mov	r24, r19
    2354:	c8 2a       	or	r12, r24
    2356:	33 0f       	add	r19, r19
    2358:	4e 17       	cp	r20, r30
    235a:	5f 07       	cpc	r21, r31
    235c:	41 f7       	brne	.-48     	;  0x232e
    235e:	f7 01       	movw	r30, r14
    2360:	80 81       	ld	r24, Z
    2362:	8f 3f       	cpi	r24, 0xFF	; 255
    2364:	11 f0       	breq	.+4      	;  0x236a
    2366:	0e 94 34 11 	call	0x2268	;  0x2268
    236a:	61 e0       	ldi	r22, 0x01	; 1
    236c:	c1 10       	cpse	r12, r1
    236e:	01 c0       	rjmp	.+2      	;  0x2372
    2370:	60 e0       	ldi	r22, 0x00	; 0
    2372:	8d 2d       	mov	r24, r13
    2374:	0e 94 c8 10 	call	0x2190	;  0x2190
    2378:	c0 0f       	add	r28, r16
    237a:	d1 1f       	adc	r29, r17
    237c:	c8 82       	st	Y, r12
    237e:	cd b7       	in	r28, 0x3d	; 61
    2380:	de b7       	in	r29, 0x3e	; 62
    2382:	e8 e0       	ldi	r30, 0x08	; 8
    2384:	0c 94 d8 24 	jmp	0x49b0	;  0x49b0
    2388:	80 e0       	ldi	r24, 0x00	; 0
    238a:	e4 cf       	rjmp	.-56     	;  0x2354
    238c:	80 91 02 01 	lds	r24, 0x0102	;  0x800102
    2390:	80 91 02 01 	lds	r24, 0x0102	;  0x800102
    2394:	94 e0       	ldi	r25, 0x04	; 4
    2396:	81 11       	cpse	r24, r1
    2398:	90 e0       	ldi	r25, 0x00	; 0
    239a:	90 93 93 02 	sts	0x0293, r25	;  0x800293
    239e:	84 e0       	ldi	r24, 0x04	; 4
    23a0:	89 1b       	sub	r24, r25
    23a2:	80 93 82 02 	sts	0x0282, r24	;  0x800282
    23a6:	0e 94 4b 11 	call	0x2296	;  0x2296
    23aa:	88 e0       	ldi	r24, 0x08	; 8
    23ac:	eb e8       	ldi	r30, 0x8B	; 139
    23ae:	f2 e0       	ldi	r31, 0x02	; 2
    23b0:	df 01       	movw	r26, r30
    23b2:	98 2f       	mov	r25, r24
    23b4:	1d 92       	st	X+, r1
    23b6:	9a 95       	dec	r25
    23b8:	e9 f7       	brne	.-6      	;  0x23b4
    23ba:	e3 e8       	ldi	r30, 0x83	; 131
    23bc:	f2 e0       	ldi	r31, 0x02	; 2
    23be:	df 01       	movw	r26, r30
    23c0:	1d 92       	st	X+, r1
    23c2:	8a 95       	dec	r24
    23c4:	e9 f7       	brne	.-6      	;  0x23c0
    23c6:	84 e0       	ldi	r24, 0x04	; 4
    23c8:	0e 94 27 12 	call	0x244e	;  0x244e
    23cc:	0e 94 b4 10 	call	0x2168	;  0x2168
    23d0:	08 95       	ret
    23d2:	a8 e0       	ldi	r26, 0x08	; 8
    23d4:	b0 e0       	ldi	r27, 0x00	; 0
    23d6:	ef ee       	ldi	r30, 0xEF	; 239
    23d8:	f1 e1       	ldi	r31, 0x11	; 17
    23da:	0c 94 bf 24 	jmp	0x497e	;  0x497e
    23de:	8e 01       	movw	r16, r28
    23e0:	0f 5f       	subi	r16, 0xFF	; 255
    23e2:	1f 4f       	sbci	r17, 0xFF	; 255
    23e4:	88 e0       	ldi	r24, 0x08	; 8
    23e6:	f8 01       	movw	r30, r16
    23e8:	11 92       	st	Z+, r1
    23ea:	8a 95       	dec	r24
    23ec:	e9 f7       	brne	.-6      	;  0x23e8
    23ee:	f1 2c       	mov	r15, r1
    23f0:	6f 2d       	mov	r22, r15
    23f2:	c8 01       	movw	r24, r16
    23f4:	0e 94 67 11 	call	0x22ce	;  0x22ce
    23f8:	f3 94       	inc	r15
    23fa:	f4 e0       	ldi	r31, 0x04	; 4
    23fc:	ff 12       	cpse	r15, r31
    23fe:	f8 cf       	rjmp	.-16     	;  0x23f0
    2400:	48 e0       	ldi	r20, 0x08	; 8
    2402:	50 e0       	ldi	r21, 0x00	; 0
    2404:	b8 01       	movw	r22, r16
    2406:	83 e8       	ldi	r24, 0x83	; 131
    2408:	92 e0       	ldi	r25, 0x02	; 2
    240a:	0e 94 fd 24 	call	0x49fa	;  0x49fa
    240e:	21 e0       	ldi	r18, 0x01	; 1
    2410:	00 97       	sbiw	r24, 0x00	; 0
    2412:	09 f4       	brne	.+2      	;  0x2416
    2414:	20 e0       	ldi	r18, 0x00	; 0
    2416:	89 2b       	or	r24, r25
    2418:	41 f0       	breq	.+16     	;  0x242a
    241a:	88 e0       	ldi	r24, 0x08	; 8
    241c:	f8 01       	movw	r30, r16
    241e:	a3 e8       	ldi	r26, 0x83	; 131
    2420:	b2 e0       	ldi	r27, 0x02	; 2
    2422:	01 90       	ld	r0, Z+
    2424:	0d 92       	st	X+, r0
    2426:	8a 95       	dec	r24
    2428:	e1 f7       	brne	.-8      	;  0x2422
    242a:	60 91 93 02 	lds	r22, 0x0293	;  0x800293
    242e:	70 e0       	ldi	r23, 0x00	; 0
    2430:	65 57       	subi	r22, 0x75	; 117
    2432:	7d 4f       	sbci	r23, 0xFD	; 253
    2434:	44 e0       	ldi	r20, 0x04	; 4
    2436:	83 e8       	ldi	r24, 0x83	; 131
    2438:	92 e0       	ldi	r25, 0x02	; 2
    243a:	0e 94 28 12 	call	0x2450	;  0x2450
    243e:	18 2f       	mov	r17, r24
    2440:	0e 94 cf 10 	call	0x219e	;  0x219e
    2444:	81 2b       	or	r24, r17
    2446:	28 96       	adiw	r28, 0x08	; 8
    2448:	e5 e0       	ldi	r30, 0x05	; 5
    244a:	0c 94 db 24 	jmp	0x49b6	;  0x49b6
    244e:	08 95       	ret
    2450:	cf 92       	push	r12
    2452:	df 92       	push	r13
    2454:	ef 92       	push	r14
    2456:	ff 92       	push	r15
    2458:	0f 93       	push	r16
    245a:	1f 93       	push	r17
    245c:	cf 93       	push	r28
    245e:	6c 01       	movw	r12, r24
    2460:	7b 01       	movw	r14, r22
    2462:	04 2f       	mov	r16, r20
    2464:	22 23       	and	r18, r18
    2466:	49 f0       	breq	.+18     	;  0x247a
    2468:	81 e0       	ldi	r24, 0x01	; 1
    246a:	80 93 36 02 	sts	0x0236, r24	;  0x800236
    246e:	0e 94 c5 1b 	call	0x378a	;  0x378a
    2472:	90 93 35 02 	sts	0x0235, r25	;  0x800235
    2476:	80 93 34 02 	sts	0x0234, r24	;  0x800234
    247a:	c0 91 36 02 	lds	r28, 0x0236	;  0x800236
    247e:	c1 11       	cpse	r28, r1
    2480:	0a c0       	rjmp	.+20     	;  0x2496
    2482:	c0 e0       	ldi	r28, 0x00	; 0
    2484:	8c 2f       	mov	r24, r28
    2486:	cf 91       	pop	r28
    2488:	1f 91       	pop	r17
    248a:	0f 91       	pop	r16
    248c:	ff 90       	pop	r15
    248e:	ef 90       	pop	r14
    2490:	df 90       	pop	r13
    2492:	cf 90       	pop	r12
    2494:	08 95       	ret
    2496:	80 91 34 02 	lds	r24, 0x0234	;  0x800234
    249a:	90 91 35 02 	lds	r25, 0x0235	;  0x800235
    249e:	0e 94 dd 1b 	call	0x37ba	;  0x37ba
    24a2:	05 97       	sbiw	r24, 0x05	; 5
    24a4:	70 f3       	brcs	.-36     	;  0x2482
    24a6:	10 e0       	ldi	r17, 0x00	; 0
    24a8:	a8 01       	movw	r20, r16
    24aa:	b6 01       	movw	r22, r12
    24ac:	c7 01       	movw	r24, r14
    24ae:	0e 94 fd 24 	call	0x49fa	;  0x49fa
    24b2:	89 2b       	or	r24, r25
    24b4:	41 f0       	breq	.+16     	;  0x24c6
    24b6:	a8 01       	movw	r20, r16
    24b8:	b6 01       	movw	r22, r12
    24ba:	c7 01       	movw	r24, r14
    24bc:	0e 94 0a 25 	call	0x4a14	;  0x4a14
    24c0:	10 92 36 02 	sts	0x0236, r1	;  0x800236
    24c4:	df cf       	rjmp	.-66     	;  0x2484
    24c6:	c0 e0       	ldi	r28, 0x00	; 0
    24c8:	fb cf       	rjmp	.-10     	;  0x24c0
    24ca:	0e 94 4c 0d 	call	0x1a98	;  0x1a98
    24ce:	08 95       	ret
    24d0:	80 91 39 02 	lds	r24, 0x0239	;  0x800239
    24d4:	81 11       	cpse	r24, r1
    24d6:	07 c0       	rjmp	.+14     	;  0x24e6
    24d8:	0e 94 8b 24 	call	0x4916	;  0x4916
    24dc:	88 23       	and	r24, r24
    24de:	51 f0       	breq	.+20     	;  0x24f4
    24e0:	81 e0       	ldi	r24, 0x01	; 1
    24e2:	80 93 39 02 	sts	0x0239, r24	;  0x800239
    24e6:	81 e0       	ldi	r24, 0x01	; 1
    24e8:	90 91 39 02 	lds	r25, 0x0239	;  0x800239
    24ec:	91 30       	cpi	r25, 0x01	; 1
    24ee:	09 f0       	breq	.+2      	;  0x24f2
    24f0:	80 e0       	ldi	r24, 0x00	; 0
    24f2:	08 95       	ret
    24f4:	82 e0       	ldi	r24, 0x02	; 2
    24f6:	80 93 39 02 	sts	0x0239, r24	;  0x800239
    24fa:	0e 94 86 24 	call	0x490c	;  0x490c
    24fe:	f3 cf       	rjmp	.-26     	;  0x24e6
    2500:	0e 94 a5 0c 	call	0x194a	;  0x194a
    2504:	81 11       	cpse	r24, r1
    2506:	02 c0       	rjmp	.+4      	;  0x250c
    2508:	0e 94 49 0d 	call	0x1a92	;  0x1a92
    250c:	0e 94 65 12 	call	0x24ca	;  0x24ca
    2510:	80 93 02 01 	sts	0x0102, r24	;  0x800102
    2514:	0e 94 68 12 	call	0x24d0	;  0x24d0
    2518:	81 11       	cpse	r24, r1
    251a:	0e 94 d4 12 	call	0x25a8	;  0x25a8
    251e:	08 95       	ret
    2520:	0e 94 68 12 	call	0x24d0	;  0x24d0
    2524:	81 11       	cpse	r24, r1
    2526:	02 c0       	rjmp	.+4      	;  0x252c
    2528:	0e 94 d7 12 	call	0x25ae	;  0x25ae
    252c:	08 95       	ret
    252e:	81 e0       	ldi	r24, 0x01	; 1
    2530:	90 91 3a 02 	lds	r25, 0x023A	;  0x80023a
    2534:	9a 30       	cpi	r25, 0x0A	; 10
    2536:	08 f0       	brcs	.+2      	;  0x253a
    2538:	80 e0       	ldi	r24, 0x00	; 0
    253a:	08 95       	ret
    253c:	0f 93       	push	r16
    253e:	1f 93       	push	r17
    2540:	cf 93       	push	r28
    2542:	df 93       	push	r29
    2544:	ec 01       	movw	r28, r24
    2546:	8b 01       	movw	r16, r22
    2548:	80 91 3a 02 	lds	r24, 0x023A	;  0x80023a
    254c:	8a 30       	cpi	r24, 0x0A	; 10
    254e:	b8 f4       	brcc	.+46     	;  0x257e
    2550:	b8 01       	movw	r22, r16
    2552:	ce 01       	movw	r24, r28
    2554:	0e 94 22 13 	call	0x2644	;  0x2644
    2558:	c8 2f       	mov	r28, r24
    255a:	81 11       	cpse	r24, r1
    255c:	22 c0       	rjmp	.+68     	;  0x25a2
    255e:	80 91 3a 02 	lds	r24, 0x023A	;  0x80023a
    2562:	8f 3f       	cpi	r24, 0xFF	; 255
    2564:	b9 f4       	brne	.+46     	;  0x2594
    2566:	0e 94 c5 1b 	call	0x378a	;  0x378a
    256a:	90 93 38 02 	sts	0x0238, r25	;  0x800238
    256e:	80 93 37 02 	sts	0x0237, r24	;  0x800237
    2572:	8c 2f       	mov	r24, r28
    2574:	df 91       	pop	r29
    2576:	cf 91       	pop	r28
    2578:	1f 91       	pop	r17
    257a:	0f 91       	pop	r16
    257c:	08 95       	ret
    257e:	80 91 37 02 	lds	r24, 0x0237	;  0x800237
    2582:	90 91 38 02 	lds	r25, 0x0238	;  0x800238
    2586:	0e 94 dd 1b 	call	0x37ba	;  0x37ba
    258a:	84 3f       	cpi	r24, 0xF4	; 244
    258c:	91 40       	sbci	r25, 0x01	; 1
    258e:	00 f7       	brcc	.-64     	;  0x2550
    2590:	c0 e0       	ldi	r28, 0x00	; 0
    2592:	ef cf       	rjmp	.-34     	;  0x2572
    2594:	8f 5f       	subi	r24, 0xFF	; 255
    2596:	80 93 3a 02 	sts	0x023A, r24	;  0x80023a
    259a:	8a 30       	cpi	r24, 0x0A	; 10
    259c:	20 f7       	brcc	.-56     	;  0x2566
    259e:	c1 e0       	ldi	r28, 0x01	; 1
    25a0:	e8 cf       	rjmp	.-48     	;  0x2572
    25a2:	10 92 3a 02 	sts	0x023A, r1	;  0x80023a
    25a6:	e5 cf       	rjmp	.-54     	;  0x2572
    25a8:	0e 94 a0 1c 	call	0x3940	;  0x3940
    25ac:	08 95       	ret
    25ae:	0e 94 a3 1c 	call	0x3946	;  0x3946
    25b2:	08 95       	ret
    25b4:	b0 e0       	ldi	r27, 0x00	; 0
    25b6:	a0 e0       	ldi	r26, 0x00	; 0
    25b8:	e0 ee       	ldi	r30, 0xE0	; 224
    25ba:	f2 e1       	ldi	r31, 0x12	; 18
    25bc:	0c 94 bd 24 	jmp	0x497a	;  0x497a
    25c0:	79 01       	movw	r14, r18
    25c2:	c8 2f       	mov	r28, r24
    25c4:	88 0f       	add	r24, r24
    25c6:	dd 0b       	sbc	r29, r29
    25c8:	41 15       	cp	r20, r1
    25ca:	51 05       	cpc	r21, r1
    25cc:	a9 f0       	breq	.+42     	;  0x25f8
    25ce:	fe 01       	movw	r30, r28
    25d0:	93 e0       	ldi	r25, 0x03	; 3
    25d2:	ee 0f       	add	r30, r30
    25d4:	ff 1f       	adc	r31, r31
    25d6:	9a 95       	dec	r25
    25d8:	e1 f7       	brne	.-8      	;  0x25d2
    25da:	ed 5f       	subi	r30, 0xFD	; 253
    25dc:	fe 4f       	sbci	r31, 0xFE	; 254
    25de:	81 81       	ldd	r24, Z+1	; 0x01
    25e0:	92 81       	ldd	r25, Z+2	; 0x02
    25e2:	85 5c       	subi	r24, 0xC5	; 197
    25e4:	9d 4f       	sbci	r25, 0xFD	; 253
    25e6:	20 81       	ld	r18, Z
    25e8:	30 e0       	ldi	r19, 0x00	; 0
    25ea:	42 17       	cp	r20, r18
    25ec:	53 07       	cpc	r21, r19
    25ee:	08 f4       	brcc	.+2      	;  0x25f2
    25f0:	9a 01       	movw	r18, r20
    25f2:	a9 01       	movw	r20, r18
    25f4:	0e 94 0a 25 	call	0x4a14	;  0x4a14
    25f8:	ce 01       	movw	r24, r28
    25fa:	0e 94 8c 1d 	call	0x3b18	;  0x3b18
    25fe:	d8 2e       	mov	r13, r24
    2600:	88 23       	and	r24, r24
    2602:	d1 f0       	breq	.+52     	;  0x2638
    2604:	01 15       	cp	r16, r1
    2606:	11 05       	cpc	r17, r1
    2608:	b9 f0       	breq	.+46     	;  0x2638
    260a:	83 e0       	ldi	r24, 0x03	; 3
    260c:	cc 0f       	add	r28, r28
    260e:	dd 1f       	adc	r29, r29
    2610:	8a 95       	dec	r24
    2612:	e1 f7       	brne	.-8      	;  0x260c
    2614:	fe 01       	movw	r30, r28
    2616:	ed 5f       	subi	r30, 0xFD	; 253
    2618:	fe 4f       	sbci	r31, 0xFE	; 254
    261a:	43 81       	ldd	r20, Z+3	; 0x03
    261c:	50 e0       	ldi	r21, 0x00	; 0
    261e:	04 17       	cp	r16, r20
    2620:	15 07       	cpc	r17, r21
    2622:	08 f4       	brcc	.+2      	;  0x2626
    2624:	a8 01       	movw	r20, r16
    2626:	cd 5f       	subi	r28, 0xFD	; 253
    2628:	de 4f       	sbci	r29, 0xFE	; 254
    262a:	6c 81       	ldd	r22, Y+4	; 0x04
    262c:	7d 81       	ldd	r23, Y+5	; 0x05
    262e:	65 5c       	subi	r22, 0xC5	; 197
    2630:	7d 4f       	sbci	r23, 0xFD	; 253
    2632:	c7 01       	movw	r24, r14
    2634:	0e 94 0a 25 	call	0x4a14	;  0x4a14
    2638:	8d 2d       	mov	r24, r13
    263a:	cd b7       	in	r28, 0x3d	; 61
    263c:	de b7       	in	r29, 0x3e	; 62
    263e:	e7 e0       	ldi	r30, 0x07	; 7
    2640:	0c 94 d9 24 	jmp	0x49b2	;  0x49b2
    2644:	0e 94 1c 14 	call	0x2838	;  0x2838
    2648:	08 95       	ret
    264a:	0e 94 33 14 	call	0x2866	;  0x2866
    264e:	08 95       	ret
    2650:	a4 e0       	ldi	r26, 0x04	; 4
    2652:	b0 e0       	ldi	r27, 0x00	; 0
    2654:	ee e2       	ldi	r30, 0x2E	; 46
    2656:	f3 e1       	ldi	r31, 0x13	; 19
    2658:	0c 94 c0 24 	jmp	0x4980	;  0x4980
    265c:	60 91 50 02 	lds	r22, 0x0250	;  0x800250
    2660:	70 91 51 02 	lds	r23, 0x0251	;  0x800251
    2664:	80 91 52 02 	lds	r24, 0x0252	;  0x800252
    2668:	90 91 53 02 	lds	r25, 0x0253	;  0x800253
    266c:	0e 94 ec 1b 	call	0x37d8	;  0x37d8
    2670:	11 e0       	ldi	r17, 0x01	; 1
    2672:	64 36       	cpi	r22, 0x64	; 100
    2674:	71 05       	cpc	r23, r1
    2676:	81 05       	cpc	r24, r1
    2678:	91 05       	cpc	r25, r1
    267a:	18 f1       	brcs	.+70     	;  0x26c2
    267c:	0e 94 79 10 	call	0x20f2	;  0x20f2
    2680:	6e 5f       	subi	r22, 0xFE	; 254
    2682:	7f 4f       	sbci	r23, 0xFF	; 255
    2684:	8f 4f       	sbci	r24, 0xFF	; 255
    2686:	9f 4f       	sbci	r25, 0xFF	; 255
    2688:	69 83       	std	Y+1, r22	; 0x01
    268a:	7a 83       	std	Y+2, r23	; 0x02
    268c:	8b 83       	std	Y+3, r24	; 0x03
    268e:	9c 83       	std	Y+4, r25	; 0x04
    2690:	10 e0       	ldi	r17, 0x00	; 0
    2692:	00 e0       	ldi	r16, 0x00	; 0
    2694:	30 e0       	ldi	r19, 0x00	; 0
    2696:	20 e0       	ldi	r18, 0x00	; 0
    2698:	44 e0       	ldi	r20, 0x04	; 4
    269a:	50 e0       	ldi	r21, 0x00	; 0
    269c:	be 01       	movw	r22, r28
    269e:	6f 5f       	subi	r22, 0xFF	; 255
    26a0:	7f 4f       	sbci	r23, 0xFF	; 255
    26a2:	82 e0       	ldi	r24, 0x02	; 2
    26a4:	0e 94 da 12 	call	0x25b4	;  0x25b4
    26a8:	18 2f       	mov	r17, r24
    26aa:	88 23       	and	r24, r24
    26ac:	51 f0       	breq	.+20     	;  0x26c2
    26ae:	0e 94 d1 1b 	call	0x37a2	;  0x37a2
    26b2:	60 93 50 02 	sts	0x0250, r22	;  0x800250
    26b6:	70 93 51 02 	sts	0x0251, r23	;  0x800251
    26ba:	80 93 52 02 	sts	0x0252, r24	;  0x800252
    26be:	90 93 53 02 	sts	0x0253, r25	;  0x800253
    26c2:	81 2f       	mov	r24, r17
    26c4:	24 96       	adiw	r28, 0x04	; 4
    26c6:	e4 e0       	ldi	r30, 0x04	; 4
    26c8:	0c 94 dc 24 	jmp	0x49b8	;  0x49b8
    26cc:	b0 e0       	ldi	r27, 0x00	; 0
    26ce:	a0 e0       	ldi	r26, 0x00	; 0
    26d0:	ec e6       	ldi	r30, 0x6C	; 108
    26d2:	f3 e1       	ldi	r31, 0x13	; 19
    26d4:	0c 94 ba 24 	jmp	0x4974	;  0x4974
    26d8:	7c 01       	movw	r14, r24
    26da:	5b 01       	movw	r10, r22
    26dc:	6a 01       	movw	r12, r20
    26de:	0e 94 97 12 	call	0x252e	;  0x252e
    26e2:	01 e0       	ldi	r16, 0x01	; 1
    26e4:	10 e0       	ldi	r17, 0x00	; 0
    26e6:	88 23       	and	r24, r24
    26e8:	11 f0       	breq	.+4      	;  0x26ee
    26ea:	0a e0       	ldi	r16, 0x0A	; 10
    26ec:	10 e0       	ldi	r17, 0x00	; 0
    26ee:	c1 e0       	ldi	r28, 0x01	; 1
    26f0:	d0 e0       	ldi	r29, 0x00	; 0
    26f2:	b5 01       	movw	r22, r10
    26f4:	c7 01       	movw	r24, r14
    26f6:	f6 01       	movw	r30, r12
    26f8:	09 95       	icall
    26fa:	81 11       	cpse	r24, r1
    26fc:	04 c0       	rjmp	.+8      	;  0x2706
    26fe:	21 96       	adiw	r28, 0x01	; 1
    2700:	0c 17       	cp	r16, r28
    2702:	1d 07       	cpc	r17, r29
    2704:	2c f4       	brge	.+10     	;  0x2710
    2706:	cd b7       	in	r28, 0x3d	; 61
    2708:	de b7       	in	r29, 0x3e	; 62
    270a:	ea e0       	ldi	r30, 0x0A	; 10
    270c:	0c 94 d6 24 	jmp	0x49ac	;  0x49ac
    2710:	cc 9f       	mul	r28, r28
    2712:	90 01       	movw	r18, r0
    2714:	cd 9f       	mul	r28, r29
    2716:	30 0d       	add	r19, r0
    2718:	30 0d       	add	r19, r0
    271a:	11 24       	eor	r1, r1
    271c:	90 e0       	ldi	r25, 0x00	; 0
    271e:	80 e0       	ldi	r24, 0x00	; 0
    2720:	45 e3       	ldi	r20, 0x35	; 53
    2722:	4a 95       	dec	r20
    2724:	f1 f7       	brne	.-4      	;  0x2722
    2726:	00 00       	nop
    2728:	01 96       	adiw	r24, 0x01	; 1
    272a:	82 17       	cp	r24, r18
    272c:	93 07       	cpc	r25, r19
    272e:	c1 f7       	brne	.-16     	;  0x2720
    2730:	e0 cf       	rjmp	.-64     	;  0x26f2
    2732:	a5 e0       	ldi	r26, 0x05	; 5
    2734:	b0 e0       	ldi	r27, 0x00	; 0
    2736:	ef e9       	ldi	r30, 0x9F	; 159
    2738:	f3 e1       	ldi	r31, 0x13	; 19
    273a:	0c 94 ba 24 	jmp	0x4974	;  0x4974
    273e:	5b 01       	movw	r10, r22
    2740:	e0 90 a7 01 	lds	r14, 0x01A7	;  0x8001a7
    2744:	f0 90 a8 01 	lds	r15, 0x01A8	;  0x8001a8
    2748:	01 e0       	ldi	r16, 0x01	; 1
    274a:	10 e0       	ldi	r17, 0x00	; 0
    274c:	9e 01       	movw	r18, r28
    274e:	2b 5f       	subi	r18, 0xFB	; 251
    2750:	3f 4f       	sbci	r19, 0xFF	; 255
    2752:	50 e0       	ldi	r21, 0x00	; 0
    2754:	40 e0       	ldi	r20, 0x00	; 0
    2756:	70 e0       	ldi	r23, 0x00	; 0
    2758:	60 e0       	ldi	r22, 0x00	; 0
    275a:	80 e0       	ldi	r24, 0x00	; 0
    275c:	0e 94 da 12 	call	0x25b4	;  0x25b4
    2760:	18 2f       	mov	r17, r24
    2762:	88 23       	and	r24, r24
    2764:	09 f4       	brne	.+2      	;  0x2768
    2766:	4b c0       	rjmp	.+150    	;  0x27fe
    2768:	67 01       	movw	r12, r14
    276a:	8f ef       	ldi	r24, 0xFF	; 255
    276c:	c8 1a       	sub	r12, r24
    276e:	d8 0a       	sbc	r13, r24
    2770:	60 91 4c 02 	lds	r22, 0x024C	;  0x80024c
    2774:	70 91 4d 02 	lds	r23, 0x024D	;  0x80024d
    2778:	80 91 4e 02 	lds	r24, 0x024E	;  0x80024e
    277c:	90 91 4f 02 	lds	r25, 0x024F	;  0x80024f
    2780:	0e 94 ec 1b 	call	0x37d8	;  0x37d8
    2784:	64 36       	cpi	r22, 0x64	; 100
    2786:	71 05       	cpc	r23, r1
    2788:	81 05       	cpc	r24, r1
    278a:	91 05       	cpc	r25, r1
    278c:	80 f1       	brcs	.+96     	;  0x27ee
    278e:	04 e0       	ldi	r16, 0x04	; 4
    2790:	10 e0       	ldi	r17, 0x00	; 0
    2792:	9e 01       	movw	r18, r28
    2794:	2f 5f       	subi	r18, 0xFF	; 255
    2796:	3f 4f       	sbci	r19, 0xFF	; 255
    2798:	50 e0       	ldi	r21, 0x00	; 0
    279a:	40 e0       	ldi	r20, 0x00	; 0
    279c:	70 e0       	ldi	r23, 0x00	; 0
    279e:	60 e0       	ldi	r22, 0x00	; 0
    27a0:	81 e0       	ldi	r24, 0x01	; 1
    27a2:	0e 94 da 12 	call	0x25b4	;  0x25b4
    27a6:	f8 2e       	mov	r15, r24
    27a8:	64 e0       	ldi	r22, 0x04	; 4
    27aa:	70 e0       	ldi	r23, 0x00	; 0
    27ac:	c6 01       	movw	r24, r12
    27ae:	0e 94 0e 17 	call	0x2e1c	;  0x2e1c
    27b2:	11 e0       	ldi	r17, 0x01	; 1
    27b4:	9d 81       	ldd	r25, Y+5	; 0x05
    27b6:	98 13       	cpse	r25, r24
    27b8:	10 e0       	ldi	r17, 0x00	; 0
    27ba:	1f 21       	and	r17, r15
    27bc:	59 f1       	breq	.+86     	;  0x2814
    27be:	0e 94 d1 1b 	call	0x37a2	;  0x37a2
    27c2:	60 93 4c 02 	sts	0x024C, r22	;  0x80024c
    27c6:	70 93 4d 02 	sts	0x024D, r23	;  0x80024d
    27ca:	80 93 4e 02 	sts	0x024E, r24	;  0x80024e
    27ce:	90 93 4f 02 	sts	0x024F, r25	;  0x80024f
    27d2:	89 81       	ldd	r24, Y+1	; 0x01
    27d4:	9a 81       	ldd	r25, Y+2	; 0x02
    27d6:	ab 81       	ldd	r26, Y+3	; 0x03
    27d8:	bc 81       	ldd	r27, Y+4	; 0x04
    27da:	80 93 48 02 	sts	0x0248, r24	;  0x800248
    27de:	90 93 49 02 	sts	0x0249, r25	;  0x800249
    27e2:	a0 93 4a 02 	sts	0x024A, r26	;  0x80024a
    27e6:	b0 93 4b 02 	sts	0x024B, r27	;  0x80024b
    27ea:	11 e0       	ldi	r17, 0x01	; 1
    27ec:	13 c0       	rjmp	.+38     	;  0x2814
    27ee:	64 e0       	ldi	r22, 0x04	; 4
    27f0:	70 e0       	ldi	r23, 0x00	; 0
    27f2:	c6 01       	movw	r24, r12
    27f4:	0e 94 0e 17 	call	0x2e1c	;  0x2e1c
    27f8:	9d 81       	ldd	r25, Y+5	; 0x05
    27fa:	89 13       	cpse	r24, r25
    27fc:	c8 cf       	rjmp	.-112    	;  0x278e
    27fe:	f7 01       	movw	r30, r14
    2800:	81 81       	ldd	r24, Z+1	; 0x01
    2802:	92 81       	ldd	r25, Z+2	; 0x02
    2804:	a3 81       	ldd	r26, Z+3	; 0x03
    2806:	b4 81       	ldd	r27, Z+4	; 0x04
    2808:	89 83       	std	Y+1, r24	; 0x01
    280a:	9a 83       	std	Y+2, r25	; 0x02
    280c:	ab 83       	std	Y+3, r26	; 0x03
    280e:	bc 83       	std	Y+4, r27	; 0x04
    2810:	11 11       	cpse	r17, r1
    2812:	df cf       	rjmp	.-66     	;  0x27d2
    2814:	80 91 48 02 	lds	r24, 0x0248	;  0x800248
    2818:	90 91 49 02 	lds	r25, 0x0249	;  0x800249
    281c:	a0 91 4a 02 	lds	r26, 0x024A	;  0x80024a
    2820:	b0 91 4b 02 	lds	r27, 0x024B	;  0x80024b
    2824:	f5 01       	movw	r30, r10
    2826:	80 83       	st	Z, r24
    2828:	91 83       	std	Z+1, r25	; 0x01
    282a:	a2 83       	std	Z+2, r26	; 0x02
    282c:	b3 83       	std	Z+3, r27	; 0x03
    282e:	81 2f       	mov	r24, r17
    2830:	25 96       	adiw	r28, 0x05	; 5
    2832:	ea e0       	ldi	r30, 0x0A	; 10
    2834:	0c 94 d6 24 	jmp	0x49ac	;  0x49ac
    2838:	0f 93       	push	r16
    283a:	1f 93       	push	r17
    283c:	cf 93       	push	r28
    283e:	df 93       	push	r29
    2840:	ec 01       	movw	r28, r24
    2842:	8b 01       	movw	r16, r22
    2844:	49 e9       	ldi	r20, 0x99	; 153
    2846:	53 e1       	ldi	r21, 0x13	; 19
    2848:	0e 94 66 13 	call	0x26cc	;  0x26cc
    284c:	88 23       	and	r24, r24
    284e:	31 f0       	breq	.+12     	;  0x285c
    2850:	48 e2       	ldi	r20, 0x28	; 40
    2852:	53 e1       	ldi	r21, 0x13	; 19
    2854:	b8 01       	movw	r22, r16
    2856:	ce 01       	movw	r24, r28
    2858:	0e 94 66 13 	call	0x26cc	;  0x26cc
    285c:	df 91       	pop	r29
    285e:	cf 91       	pop	r28
    2860:	1f 91       	pop	r17
    2862:	0f 91       	pop	r16
    2864:	08 95       	ret
    2866:	0f 93       	push	r16
    2868:	1f 93       	push	r17
    286a:	cf 93       	push	r28
    286c:	df 93       	push	r29
    286e:	c0 91 a7 01 	lds	r28, 0x01A7	;  0x8001a7
    2872:	d0 91 a8 01 	lds	r29, 0x01A8	;  0x8001a8
    2876:	ce 01       	movw	r24, r28
    2878:	01 96       	adiw	r24, 0x01	; 1
    287a:	24 e0       	ldi	r18, 0x04	; 4
    287c:	fb 01       	movw	r30, r22
    287e:	dc 01       	movw	r26, r24
    2880:	01 90       	ld	r0, Z+
    2882:	0d 92       	st	X+, r0
    2884:	2a 95       	dec	r18
    2886:	e1 f7       	brne	.-8      	;  0x2880
    2888:	64 e0       	ldi	r22, 0x04	; 4
    288a:	70 e0       	ldi	r23, 0x00	; 0
    288c:	0e 94 0e 17 	call	0x2e1c	;  0x2e1c
    2890:	88 83       	st	Y, r24
    2892:	6d 81       	ldd	r22, Y+5	; 0x05
    2894:	7e 81       	ldd	r23, Y+6	; 0x06
    2896:	8f 81       	ldd	r24, Y+7	; 0x07
    2898:	98 85       	ldd	r25, Y+8	; 0x08
    289a:	00 91 44 02 	lds	r16, 0x0244	;  0x800244
    289e:	10 91 45 02 	lds	r17, 0x0245	;  0x800245
    28a2:	20 91 46 02 	lds	r18, 0x0246	;  0x800246
    28a6:	30 91 47 02 	lds	r19, 0x0247	;  0x800247
    28aa:	60 17       	cp	r22, r16
    28ac:	71 07       	cpc	r23, r17
    28ae:	82 07       	cpc	r24, r18
    28b0:	93 07       	cpc	r25, r19
    28b2:	51 f0       	breq	.+20     	;  0x28c8
    28b4:	60 93 44 02 	sts	0x0244, r22	;  0x800244
    28b8:	70 93 45 02 	sts	0x0245, r23	;  0x800245
    28bc:	80 93 46 02 	sts	0x0246, r24	;  0x800246
    28c0:	90 93 47 02 	sts	0x0247, r25	;  0x800247
    28c4:	0e 94 5c 10 	call	0x20b8	;  0x20b8
    28c8:	df 91       	pop	r29
    28ca:	cf 91       	pop	r28
    28cc:	1f 91       	pop	r17
    28ce:	0f 91       	pop	r16
    28d0:	08 95       	ret
    28d2:	0e 94 5c 1f 	call	0x3eb8	;  0x3eb8
    28d6:	0e 94 b6 0d 	call	0x1b6c	;  0x1b6c
    28da:	0e 94 69 1f 	call	0x3ed2	;  0x3ed2
    28de:	08 95       	ret
    28e0:	0e 94 6e 1f 	call	0x3edc	;  0x3edc
    28e4:	0e 94 c7 0d 	call	0x1b8e	;  0x1b8e
    28e8:	0e 94 88 1f 	call	0x3f10	;  0x3f10
    28ec:	08 95       	ret
    28ee:	0e 94 5e 1b 	call	0x36bc	;  0x36bc
    28f2:	0e 94 42 1f 	call	0x3e84	;  0x3e84
    28f6:	0e 94 9e 0d 	call	0x1b3c	;  0x1b3c
    28fa:	0e 94 69 14 	call	0x28d2	;  0x28d2
    28fe:	0e 94 70 14 	call	0x28e0	;  0x28e0
    2902:	0e 94 ac 0d 	call	0x1b58	;  0x1b58
    2906:	fb cf       	rjmp	.-10     	;  0x28fe
    2908:	90 93 ab 01 	sts	0x01AB, r25	;  0x8001ab
    290c:	80 93 aa 01 	sts	0x01AA, r24	;  0x8001aa
    2910:	08 95       	ret
    2912:	28 2f       	mov	r18, r24
    2914:	35 eb       	ldi	r19, 0xB5	; 181
    2916:	23 03       	mulsu	r18, r19
    2918:	c0 01       	movw	r24, r0
    291a:	11 24       	eor	r1, r1
    291c:	97 ff       	sbrs	r25, 7
    291e:	04 c0       	rjmp	.+8      	;  0x2928
    2920:	80 58       	subi	r24, 0x80	; 128
    2922:	91 09       	sbc	r25, r1
    2924:	89 2f       	mov	r24, r25
    2926:	08 95       	ret
    2928:	80 58       	subi	r24, 0x80	; 128
    292a:	9f 4f       	sbci	r25, 0xFF	; 255
    292c:	fb cf       	rjmp	.-10     	;  0x2924
    292e:	80 91 5a 02 	lds	r24, 0x025A	;  0x80025a
    2932:	80 ff       	sbrs	r24, 0
    2934:	0d c0       	rjmp	.+26     	;  0x2950
    2936:	60 91 20 01 	lds	r22, 0x0120	;  0x800120
    293a:	70 e0       	ldi	r23, 0x00	; 0
    293c:	66 0f       	add	r22, r22
    293e:	77 1f       	adc	r23, r23
    2940:	60 38       	cpi	r22, 0x80	; 128
    2942:	71 05       	cpc	r23, r1
    2944:	70 f5       	brcc	.+92     	;  0x29a2
    2946:	61 15       	cp	r22, r1
    2948:	71 05       	cpc	r23, r1
    294a:	69 f1       	breq	.+90     	;  0x29a6
    294c:	86 2f       	mov	r24, r22
    294e:	08 95       	ret
    2950:	81 ff       	sbrs	r24, 1
    2952:	07 c0       	rjmp	.+14     	;  0x2962
    2954:	60 91 20 01 	lds	r22, 0x0120	;  0x800120
    2958:	84 e0       	ldi	r24, 0x04	; 4
    295a:	68 9f       	mul	r22, r24
    295c:	b0 01       	movw	r22, r0
    295e:	11 24       	eor	r1, r1
    2960:	ef cf       	rjmp	.-34     	;  0x2940
    2962:	60 91 20 01 	lds	r22, 0x0120	;  0x800120
    2966:	82 fd       	sbrc	r24, 2
    2968:	0a c0       	rjmp	.+20     	;  0x297e
    296a:	80 91 59 02 	lds	r24, 0x0259	;  0x800259
    296e:	88 23       	and	r24, r24
    2970:	a9 f0       	breq	.+42     	;  0x299c
    2972:	20 91 1f 01 	lds	r18, 0x011F	;  0x80011f
    2976:	60 91 20 01 	lds	r22, 0x0120	;  0x800120
    297a:	82 17       	cp	r24, r18
    297c:	10 f0       	brcs	.+4      	;  0x2982
    297e:	88 e0       	ldi	r24, 0x08	; 8
    2980:	ec cf       	rjmp	.-40     	;  0x295a
    2982:	86 9f       	mul	r24, r22
    2984:	c0 01       	movw	r24, r0
    2986:	11 24       	eor	r1, r1
    2988:	33 e0       	ldi	r19, 0x03	; 3
    298a:	88 0f       	add	r24, r24
    298c:	99 1f       	adc	r25, r25
    298e:	3a 95       	dec	r19
    2990:	e1 f7       	brne	.-8      	;  0x298a
    2992:	62 2f       	mov	r22, r18
    2994:	70 e0       	ldi	r23, 0x00	; 0
    2996:	0e 94 98 24 	call	0x4930	;  0x4930
    299a:	d2 cf       	rjmp	.-92     	;  0x2940
    299c:	68 e0       	ldi	r22, 0x08	; 8
    299e:	70 e0       	ldi	r23, 0x00	; 0
    29a0:	d5 cf       	rjmp	.-86     	;  0x294c
    29a2:	8f e7       	ldi	r24, 0x7F	; 127
    29a4:	08 95       	ret
    29a6:	81 e0       	ldi	r24, 0x01	; 1
    29a8:	08 95       	ret
    29aa:	80 91 5a 02 	lds	r24, 0x025A	;  0x80025a
    29ae:	80 ff       	sbrs	r24, 0
    29b0:	0c c0       	rjmp	.+24     	;  0x29ca
    29b2:	60 91 1c 01 	lds	r22, 0x011C	;  0x80011c
    29b6:	70 e0       	ldi	r23, 0x00	; 0
    29b8:	75 95       	asr	r23
    29ba:	67 95       	ror	r22
    29bc:	75 95       	asr	r23
    29be:	67 95       	ror	r22
    29c0:	61 15       	cp	r22, r1
    29c2:	71 05       	cpc	r23, r1
    29c4:	49 f1       	breq	.+82     	;  0x2a18
    29c6:	86 2f       	mov	r24, r22
    29c8:	08 95       	ret
    29ca:	81 ff       	sbrs	r24, 1
    29cc:	06 c0       	rjmp	.+12     	;  0x29da
    29ce:	60 91 1c 01 	lds	r22, 0x011C	;  0x80011c
    29d2:	70 e0       	ldi	r23, 0x00	; 0
    29d4:	75 95       	asr	r23
    29d6:	67 95       	ror	r22
    29d8:	f3 cf       	rjmp	.-26     	;  0x29c0
    29da:	60 91 1c 01 	lds	r22, 0x011C	;  0x80011c
    29de:	82 fd       	sbrc	r24, 2
    29e0:	0b c0       	rjmp	.+22     	;  0x29f8
    29e2:	90 91 58 02 	lds	r25, 0x0258	;  0x800258
    29e6:	99 23       	and	r25, r25
    29e8:	a1 f0       	breq	.+40     	;  0x2a12
    29ea:	60 91 1b 01 	lds	r22, 0x011B	;  0x80011b
    29ee:	80 91 1c 01 	lds	r24, 0x011C	;  0x80011c
    29f2:	96 17       	cp	r25, r22
    29f4:	38 f0       	brcs	.+14     	;  0x2a04
    29f6:	68 2f       	mov	r22, r24
    29f8:	70 e0       	ldi	r23, 0x00	; 0
    29fa:	60 38       	cpi	r22, 0x80	; 128
    29fc:	71 05       	cpc	r23, r1
    29fe:	00 f3       	brcs	.-64     	;  0x29c0
    2a00:	8f e7       	ldi	r24, 0x7F	; 127
    2a02:	08 95       	ret
    2a04:	89 9f       	mul	r24, r25
    2a06:	c0 01       	movw	r24, r0
    2a08:	11 24       	eor	r1, r1
    2a0a:	70 e0       	ldi	r23, 0x00	; 0
    2a0c:	0e 94 98 24 	call	0x4930	;  0x4930
    2a10:	f4 cf       	rjmp	.-24     	;  0x29fa
    2a12:	61 e0       	ldi	r22, 0x01	; 1
    2a14:	70 e0       	ldi	r23, 0x00	; 0
    2a16:	d7 cf       	rjmp	.-82     	;  0x29c6
    2a18:	81 e0       	ldi	r24, 0x01	; 1
    2a1a:	08 95       	ret
    2a1c:	8d 3c       	cpi	r24, 0xCD	; 205
    2a1e:	31 f4       	brne	.+12     	;  0x2a2c
    2a20:	0e 94 97 14 	call	0x292e	;  0x292e
    2a24:	81 95       	neg	r24
    2a26:	80 93 5e 02 	sts	0x025E, r24	;  0x80025e
    2a2a:	08 95       	ret
    2a2c:	8e 3c       	cpi	r24, 0xCE	; 206
    2a2e:	19 f4       	brne	.+6      	;  0x2a36
    2a30:	0e 94 97 14 	call	0x292e	;  0x292e
    2a34:	f8 cf       	rjmp	.-16     	;  0x2a26
    2a36:	8f 3c       	cpi	r24, 0xCF	; 207
    2a38:	31 f4       	brne	.+12     	;  0x2a46
    2a3a:	0e 94 97 14 	call	0x292e	;  0x292e
    2a3e:	81 95       	neg	r24
    2a40:	80 93 5d 02 	sts	0x025D, r24	;  0x80025d
    2a44:	08 95       	ret
    2a46:	80 3d       	cpi	r24, 0xD0	; 208
    2a48:	19 f4       	brne	.+6      	;  0x2a50
    2a4a:	0e 94 97 14 	call	0x292e	;  0x292e
    2a4e:	f8 cf       	rjmp	.-16     	;  0x2a40
    2a50:	89 3d       	cpi	r24, 0xD9	; 217
    2a52:	29 f4       	brne	.+10     	;  0x2a5e
    2a54:	0e 94 d5 14 	call	0x29aa	;  0x29aa
    2a58:	80 93 5f 02 	sts	0x025F, r24	;  0x80025f
    2a5c:	08 95       	ret
    2a5e:	8a 3d       	cpi	r24, 0xDA	; 218
    2a60:	21 f4       	brne	.+8      	;  0x2a6a
    2a62:	0e 94 d5 14 	call	0x29aa	;  0x29aa
    2a66:	81 95       	neg	r24
    2a68:	f7 cf       	rjmp	.-18     	;  0x2a58
    2a6a:	8b 3d       	cpi	r24, 0xDB	; 219
    2a6c:	31 f4       	brne	.+12     	;  0x2a7a
    2a6e:	0e 94 d5 14 	call	0x29aa	;  0x29aa
    2a72:	81 95       	neg	r24
    2a74:	80 93 60 02 	sts	0x0260, r24	;  0x800260
    2a78:	08 95       	ret
    2a7a:	8c 3d       	cpi	r24, 0xDC	; 220
    2a7c:	19 f4       	brne	.+6      	;  0x2a84
    2a7e:	0e 94 d5 14 	call	0x29aa	;  0x29aa
    2a82:	f8 cf       	rjmp	.-16     	;  0x2a74
    2a84:	9f e2       	ldi	r25, 0x2F	; 47
    2a86:	98 0f       	add	r25, r24
    2a88:	98 30       	cpi	r25, 0x08	; 8
    2a8a:	70 f4       	brcc	.+28     	;  0x2aa8
    2a8c:	81 5d       	subi	r24, 0xD1	; 209
    2a8e:	99 0b       	sbc	r25, r25
    2a90:	21 e0       	ldi	r18, 0x01	; 1
    2a92:	30 e0       	ldi	r19, 0x00	; 0
    2a94:	01 c0       	rjmp	.+2      	;  0x2a98
    2a96:	22 0f       	add	r18, r18
    2a98:	8a 95       	dec	r24
    2a9a:	ea f7       	brpl	.-6      	;  0x2a96
    2a9c:	80 91 5c 02 	lds	r24, 0x025C	;  0x80025c
    2aa0:	82 2b       	or	r24, r18
    2aa2:	80 93 5c 02 	sts	0x025C, r24	;  0x80025c
    2aa6:	08 95       	ret
    2aa8:	8d 3d       	cpi	r24, 0xDD	; 221
    2aaa:	31 f4       	brne	.+12     	;  0x2ab8
    2aac:	80 91 5a 02 	lds	r24, 0x025A	;  0x80025a
    2ab0:	81 60       	ori	r24, 0x01	; 1
    2ab2:	80 93 5a 02 	sts	0x025A, r24	;  0x80025a
    2ab6:	08 95       	ret
    2ab8:	8e 3d       	cpi	r24, 0xDE	; 222
    2aba:	21 f4       	brne	.+8      	;  0x2ac4
    2abc:	80 91 5a 02 	lds	r24, 0x025A	;  0x80025a
    2ac0:	82 60       	ori	r24, 0x02	; 2
    2ac2:	f7 cf       	rjmp	.-18     	;  0x2ab2
    2ac4:	8f 3d       	cpi	r24, 0xDF	; 223
    2ac6:	b9 f7       	brne	.-18     	;  0x2ab6
    2ac8:	80 91 5a 02 	lds	r24, 0x025A	;  0x80025a
    2acc:	84 60       	ori	r24, 0x04	; 4
    2ace:	f1 cf       	rjmp	.-30     	;  0x2ab2
    2ad0:	40 91 5d 02 	lds	r20, 0x025D	;  0x80025d
    2ad4:	8d 3c       	cpi	r24, 0xCD	; 205
    2ad6:	59 f4       	brne	.+22     	;  0x2aee
    2ad8:	80 91 5e 02 	lds	r24, 0x025E	;  0x80025e
    2adc:	87 ff       	sbrs	r24, 7
    2ade:	0d c0       	rjmp	.+26     	;  0x2afa
    2ae0:	10 92 5e 02 	sts	0x025E, r1	;  0x80025e
    2ae4:	41 11       	cpse	r20, r1
    2ae6:	0b c0       	rjmp	.+22     	;  0x2afe
    2ae8:	10 92 59 02 	sts	0x0259, r1	;  0x800259
    2aec:	08 c0       	rjmp	.+16     	;  0x2afe
    2aee:	8e 3c       	cpi	r24, 0xCE	; 206
    2af0:	81 f4       	brne	.+32     	;  0x2b12
    2af2:	80 91 5e 02 	lds	r24, 0x025E	;  0x80025e
    2af6:	18 16       	cp	r1, r24
    2af8:	9c f3       	brlt	.-26     	;  0x2ae0
    2afa:	44 23       	and	r20, r20
    2afc:	81 f0       	breq	.+32     	;  0x2b1e
    2afe:	80 91 5f 02 	lds	r24, 0x025F	;  0x80025f
    2b02:	90 91 60 02 	lds	r25, 0x0260	;  0x800260
    2b06:	89 2b       	or	r24, r25
    2b08:	09 f0       	breq	.+2      	;  0x2b0c
    2b0a:	5a c0       	rjmp	.+180    	;  0x2bc0
    2b0c:	10 92 58 02 	sts	0x0258, r1	;  0x800258
    2b10:	08 95       	ret
    2b12:	8f 3c       	cpi	r24, 0xCF	; 207
    2b14:	49 f4       	brne	.+18     	;  0x2b28
    2b16:	47 ff       	sbrs	r20, 7
    2b18:	f0 cf       	rjmp	.-32     	;  0x2afa
    2b1a:	10 92 5d 02 	sts	0x025D, r1	;  0x80025d
    2b1e:	80 91 5e 02 	lds	r24, 0x025E	;  0x80025e
    2b22:	81 11       	cpse	r24, r1
    2b24:	ec cf       	rjmp	.-40     	;  0x2afe
    2b26:	e0 cf       	rjmp	.-64     	;  0x2ae8
    2b28:	80 3d       	cpi	r24, 0xD0	; 208
    2b2a:	19 f4       	brne	.+6      	;  0x2b32
    2b2c:	14 16       	cp	r1, r20
    2b2e:	ac f3       	brlt	.-22     	;  0x2b1a
    2b30:	e4 cf       	rjmp	.-56     	;  0x2afa
    2b32:	90 91 5f 02 	lds	r25, 0x025F	;  0x80025f
    2b36:	89 3d       	cpi	r24, 0xD9	; 217
    2b38:	29 f4       	brne	.+10     	;  0x2b44
    2b3a:	19 16       	cp	r1, r25
    2b3c:	f4 f6       	brge	.-68     	;  0x2afa
    2b3e:	10 92 5f 02 	sts	0x025F, r1	;  0x80025f
    2b42:	db cf       	rjmp	.-74     	;  0x2afa
    2b44:	8a 3d       	cpi	r24, 0xDA	; 218
    2b46:	19 f4       	brne	.+6      	;  0x2b4e
    2b48:	97 ff       	sbrs	r25, 7
    2b4a:	d7 cf       	rjmp	.-82     	;  0x2afa
    2b4c:	f8 cf       	rjmp	.-16     	;  0x2b3e
    2b4e:	90 91 60 02 	lds	r25, 0x0260	;  0x800260
    2b52:	8b 3d       	cpi	r24, 0xDB	; 219
    2b54:	29 f4       	brne	.+10     	;  0x2b60
    2b56:	97 ff       	sbrs	r25, 7
    2b58:	d0 cf       	rjmp	.-96     	;  0x2afa
    2b5a:	10 92 60 02 	sts	0x0260, r1	;  0x800260
    2b5e:	cd cf       	rjmp	.-102    	;  0x2afa
    2b60:	8c 3d       	cpi	r24, 0xDC	; 220
    2b62:	19 f4       	brne	.+6      	;  0x2b6a
    2b64:	19 16       	cp	r1, r25
    2b66:	cc f3       	brlt	.-14     	;  0x2b5a
    2b68:	c8 cf       	rjmp	.-112    	;  0x2afa
    2b6a:	9f e2       	ldi	r25, 0x2F	; 47
    2b6c:	98 0f       	add	r25, r24
    2b6e:	98 30       	cpi	r25, 0x08	; 8
    2b70:	90 f4       	brcc	.+36     	;  0x2b96
    2b72:	81 5d       	subi	r24, 0xD1	; 209
    2b74:	99 0b       	sbc	r25, r25
    2b76:	21 e0       	ldi	r18, 0x01	; 1
    2b78:	30 e0       	ldi	r19, 0x00	; 0
    2b7a:	b9 01       	movw	r22, r18
    2b7c:	02 c0       	rjmp	.+4      	;  0x2b82
    2b7e:	66 0f       	add	r22, r22
    2b80:	77 1f       	adc	r23, r23
    2b82:	8a 95       	dec	r24
    2b84:	e2 f7       	brpl	.-8      	;  0x2b7e
    2b86:	cb 01       	movw	r24, r22
    2b88:	80 95       	com	r24
    2b8a:	90 91 5c 02 	lds	r25, 0x025C	;  0x80025c
    2b8e:	89 23       	and	r24, r25
    2b90:	80 93 5c 02 	sts	0x025C, r24	;  0x80025c
    2b94:	b2 cf       	rjmp	.-156    	;  0x2afa
    2b96:	8d 3d       	cpi	r24, 0xDD	; 221
    2b98:	31 f4       	brne	.+12     	;  0x2ba6
    2b9a:	80 91 5a 02 	lds	r24, 0x025A	;  0x80025a
    2b9e:	8e 7f       	andi	r24, 0xFE	; 254
    2ba0:	80 93 5a 02 	sts	0x025A, r24	;  0x80025a
    2ba4:	aa cf       	rjmp	.-172    	;  0x2afa
    2ba6:	8e 3d       	cpi	r24, 0xDE	; 222
    2ba8:	21 f4       	brne	.+8      	;  0x2bb2
    2baa:	80 91 5a 02 	lds	r24, 0x025A	;  0x80025a
    2bae:	8d 7f       	andi	r24, 0xFD	; 253
    2bb0:	f7 cf       	rjmp	.-18     	;  0x2ba0
    2bb2:	8f 3d       	cpi	r24, 0xDF	; 223
    2bb4:	09 f0       	breq	.+2      	;  0x2bb8
    2bb6:	a1 cf       	rjmp	.-190    	;  0x2afa
    2bb8:	80 91 5a 02 	lds	r24, 0x025A	;  0x80025a
    2bbc:	8b 7f       	andi	r24, 0xFB	; 251
    2bbe:	f0 cf       	rjmp	.-32     	;  0x2ba0
    2bc0:	08 95       	ret
    2bc2:	0e 94 c5 1b 	call	0x378a	;  0x378a
    2bc6:	9c 01       	movw	r18, r24
    2bc8:	90 91 5d 02 	lds	r25, 0x025D	;  0x80025d
    2bcc:	80 91 5e 02 	lds	r24, 0x025E	;  0x80025e
    2bd0:	98 2b       	or	r25, r24
    2bd2:	21 f0       	breq	.+8      	;  0x2bdc
    2bd4:	30 93 57 02 	sts	0x0257, r19	;  0x800257
    2bd8:	20 93 56 02 	sts	0x0256, r18	;  0x800256
    2bdc:	90 91 5f 02 	lds	r25, 0x025F	;  0x80025f
    2be0:	80 91 60 02 	lds	r24, 0x0260	;  0x800260
    2be4:	98 2b       	or	r25, r24
    2be6:	21 f0       	breq	.+8      	;  0x2bf0
    2be8:	30 93 55 02 	sts	0x0255, r19	;  0x800255
    2bec:	20 93 54 02 	sts	0x0254, r18	;  0x800254
    2bf0:	8b e5       	ldi	r24, 0x5B	; 91
    2bf2:	92 e0       	ldi	r25, 0x02	; 2
    2bf4:	0e 94 46 1a 	call	0x348c	;  0x348c
    2bf8:	08 95       	ret
    2bfa:	86 e0       	ldi	r24, 0x06	; 6
    2bfc:	eb e5       	ldi	r30, 0x5B	; 91
    2bfe:	f2 e0       	ldi	r31, 0x02	; 2
    2c00:	df 01       	movw	r26, r30
    2c02:	1d 92       	st	X+, r1
    2c04:	8a 95       	dec	r24
    2c06:	e9 f7       	brne	.-6      	;  0x2c02
    2c08:	10 92 59 02 	sts	0x0259, r1	;  0x800259
    2c0c:	10 92 58 02 	sts	0x0258, r1	;  0x800258
    2c10:	10 92 5a 02 	sts	0x025A, r1	;  0x80025a
    2c14:	08 95       	ret
    2c16:	fc 01       	movw	r30, r24
    2c18:	82 81       	ldd	r24, Z+2	; 0x02
    2c1a:	81 11       	cpse	r24, r1
    2c1c:	0e c0       	rjmp	.+28     	;  0x2c3a
    2c1e:	83 81       	ldd	r24, Z+3	; 0x03
    2c20:	81 11       	cpse	r24, r1
    2c22:	0b c0       	rjmp	.+22     	;  0x2c3a
    2c24:	84 81       	ldd	r24, Z+4	; 0x04
    2c26:	81 11       	cpse	r24, r1
    2c28:	08 c0       	rjmp	.+16     	;  0x2c3a
    2c2a:	91 e0       	ldi	r25, 0x01	; 1
    2c2c:	85 81       	ldd	r24, Z+5	; 0x05
    2c2e:	81 11       	cpse	r24, r1
    2c30:	01 c0       	rjmp	.+2      	;  0x2c34
    2c32:	90 e0       	ldi	r25, 0x00	; 0
    2c34:	89 2f       	mov	r24, r25
    2c36:	81 70       	andi	r24, 0x01	; 1
    2c38:	08 95       	ret
    2c3a:	81 e0       	ldi	r24, 0x01	; 1
    2c3c:	fc cf       	rjmp	.-8      	;  0x2c36
    2c3e:	a6 e0       	ldi	r26, 0x06	; 6
    2c40:	b0 e0       	ldi	r27, 0x00	; 0
    2c42:	e5 e2       	ldi	r30, 0x25	; 37
    2c44:	f6 e1       	ldi	r31, 0x16	; 22
    2c46:	0c 94 c1 24 	jmp	0x4982	;  0x4982
    2c4a:	86 e0       	ldi	r24, 0x06	; 6
    2c4c:	eb e5       	ldi	r30, 0x5B	; 91
    2c4e:	f2 e0       	ldi	r31, 0x02	; 2
    2c50:	de 01       	movw	r26, r28
    2c52:	11 96       	adiw	r26, 0x01	; 1
    2c54:	01 90       	ld	r0, Z+
    2c56:	0d 92       	st	X+, r0
    2c58:	8a 95       	dec	r24
    2c5a:	e1 f7       	brne	.-8      	;  0x2c54
    2c5c:	10 92 5d 02 	sts	0x025D, r1	;  0x80025d
    2c60:	10 92 5e 02 	sts	0x025E, r1	;  0x80025e
    2c64:	10 92 5f 02 	sts	0x025F, r1	;  0x80025f
    2c68:	10 92 60 02 	sts	0x0260, r1	;  0x800260
    2c6c:	8b 81       	ldd	r24, Y+3	; 0x03
    2c6e:	9c 81       	ldd	r25, Y+4	; 0x04
    2c70:	89 2b       	or	r24, r25
    2c72:	89 f0       	breq	.+34     	;  0x2c96
    2c74:	80 91 56 02 	lds	r24, 0x0256	;  0x800256
    2c78:	90 91 57 02 	lds	r25, 0x0257	;  0x800257
    2c7c:	0e 94 dd 1b 	call	0x37ba	;  0x37ba
    2c80:	ac 01       	movw	r20, r24
    2c82:	90 91 59 02 	lds	r25, 0x0259	;  0x800259
    2c86:	99 23       	and	r25, r25
    2c88:	c9 f1       	breq	.+114    	;  0x2cfc
    2c8a:	80 91 21 01 	lds	r24, 0x0121	;  0x800121
    2c8e:	84 17       	cp	r24, r20
    2c90:	15 06       	cpc	r1, r21
    2c92:	08 f4       	brcc	.+2      	;  0x2c96
    2c94:	40 c0       	rjmp	.+128    	;  0x2d16
    2c96:	8d 81       	ldd	r24, Y+5	; 0x05
    2c98:	9e 81       	ldd	r25, Y+6	; 0x06
    2c9a:	89 2b       	or	r24, r25
    2c9c:	91 f0       	breq	.+36     	;  0x2cc2
    2c9e:	80 91 54 02 	lds	r24, 0x0254	;  0x800254
    2ca2:	90 91 55 02 	lds	r25, 0x0255	;  0x800255
    2ca6:	0e 94 dd 1b 	call	0x37ba	;  0x37ba
    2caa:	ac 01       	movw	r20, r24
    2cac:	90 91 58 02 	lds	r25, 0x0258	;  0x800258
    2cb0:	99 23       	and	r25, r25
    2cb2:	09 f4       	brne	.+2      	;  0x2cb6
    2cb4:	6a c0       	rjmp	.+212    	;  0x2d8a
    2cb6:	80 91 1d 01 	lds	r24, 0x011D	;  0x80011d
    2cba:	84 17       	cp	r24, r20
    2cbc:	15 06       	cpc	r1, r21
    2cbe:	08 f4       	brcc	.+2      	;  0x2cc2
    2cc0:	72 c0       	rjmp	.+228    	;  0x2da6
    2cc2:	be 01       	movw	r22, r28
    2cc4:	6f 5f       	subi	r22, 0xFF	; 255
    2cc6:	7f 4f       	sbci	r23, 0xFF	; 255
    2cc8:	8b e5       	ldi	r24, 0x5B	; 91
    2cca:	92 e0       	ldi	r25, 0x02	; 2
    2ccc:	0e 94 f3 1a 	call	0x35e6	;  0x35e6
    2cd0:	81 11       	cpse	r24, r1
    2cd2:	05 c0       	rjmp	.+10     	;  0x2cde
    2cd4:	8b e5       	ldi	r24, 0x5B	; 91
    2cd6:	92 e0       	ldi	r25, 0x02	; 2
    2cd8:	0e 94 0b 16 	call	0x2c16	;  0x2c16
    2cdc:	81 11       	cpse	r24, r1
    2cde:	0e 94 e1 15 	call	0x2bc2	;  0x2bc2
    2ce2:	86 e0       	ldi	r24, 0x06	; 6
    2ce4:	fe 01       	movw	r30, r28
    2ce6:	31 96       	adiw	r30, 0x01	; 1
    2ce8:	ab e5       	ldi	r26, 0x5B	; 91
    2cea:	b2 e0       	ldi	r27, 0x02	; 2
    2cec:	01 90       	ld	r0, Z+
    2cee:	0d 92       	st	X+, r0
    2cf0:	8a 95       	dec	r24
    2cf2:	e1 f7       	brne	.-8      	;  0x2cec
    2cf4:	26 96       	adiw	r28, 0x06	; 6
    2cf6:	e3 e0       	ldi	r30, 0x03	; 3
    2cf8:	0c 94 dd 24 	jmp	0x49ba	;  0x49ba
    2cfc:	20 91 22 01 	lds	r18, 0x0122	;  0x800122
    2d00:	8a e0       	ldi	r24, 0x0A	; 10
    2d02:	28 9f       	mul	r18, r24
    2d04:	90 01       	movw	r18, r0
    2d06:	11 24       	eor	r1, r1
    2d08:	24 17       	cp	r18, r20
    2d0a:	35 07       	cpc	r19, r21
    2d0c:	20 f6       	brcc	.-120    	;  0x2c96
    2d0e:	9f 5f       	subi	r25, 0xFF	; 255
    2d10:	90 93 59 02 	sts	0x0259, r25	;  0x800259
    2d14:	02 c0       	rjmp	.+4      	;  0x2d1a
    2d16:	9f 3f       	cpi	r25, 0xFF	; 255
    2d18:	d1 f7       	brne	.-12     	;  0x2d0e
    2d1a:	1b 81       	ldd	r17, Y+3	; 0x03
    2d1c:	11 23       	and	r17, r17
    2d1e:	59 f0       	breq	.+22     	;  0x2d36
    2d20:	0e 94 97 14 	call	0x292e	;  0x292e
    2d24:	9f ef       	ldi	r25, 0xFF	; 255
    2d26:	11 16       	cp	r1, r17
    2d28:	0c f4       	brge	.+2      	;  0x2d2c
    2d2a:	91 e0       	ldi	r25, 0x01	; 1
    2d2c:	89 9f       	mul	r24, r25
    2d2e:	80 2d       	mov	r24, r0
    2d30:	11 24       	eor	r1, r1
    2d32:	80 93 5d 02 	sts	0x025D, r24	;  0x80025d
    2d36:	1c 81       	ldd	r17, Y+4	; 0x04
    2d38:	11 23       	and	r17, r17
    2d3a:	59 f0       	breq	.+22     	;  0x2d52
    2d3c:	0e 94 97 14 	call	0x292e	;  0x292e
    2d40:	9f ef       	ldi	r25, 0xFF	; 255
    2d42:	11 16       	cp	r1, r17
    2d44:	0c f4       	brge	.+2      	;  0x2d48
    2d46:	91 e0       	ldi	r25, 0x01	; 1
    2d48:	89 9f       	mul	r24, r25
    2d4a:	80 2d       	mov	r24, r0
    2d4c:	11 24       	eor	r1, r1
    2d4e:	80 93 5e 02 	sts	0x025E, r24	;  0x80025e
    2d52:	80 91 5d 02 	lds	r24, 0x025D	;  0x80025d
    2d56:	88 23       	and	r24, r24
    2d58:	09 f4       	brne	.+2      	;  0x2d5c
    2d5a:	9d cf       	rjmp	.-198    	;  0x2c96
    2d5c:	10 91 5e 02 	lds	r17, 0x025E	;  0x80025e
    2d60:	11 23       	and	r17, r17
    2d62:	09 f4       	brne	.+2      	;  0x2d66
    2d64:	98 cf       	rjmp	.-208    	;  0x2c96
    2d66:	0e 94 89 14 	call	0x2912	;  0x2912
    2d6a:	88 23       	and	r24, r24
    2d6c:	51 f0       	breq	.+20     	;  0x2d82
    2d6e:	80 93 5d 02 	sts	0x025D, r24	;  0x80025d
    2d72:	81 2f       	mov	r24, r17
    2d74:	0e 94 89 14 	call	0x2912	;  0x2912
    2d78:	88 23       	and	r24, r24
    2d7a:	29 f0       	breq	.+10     	;  0x2d86
    2d7c:	80 93 5e 02 	sts	0x025E, r24	;  0x80025e
    2d80:	8a cf       	rjmp	.-236    	;  0x2c96
    2d82:	81 e0       	ldi	r24, 0x01	; 1
    2d84:	f4 cf       	rjmp	.-24     	;  0x2d6e
    2d86:	81 e0       	ldi	r24, 0x01	; 1
    2d88:	f9 cf       	rjmp	.-14     	;  0x2d7c
    2d8a:	20 91 1e 01 	lds	r18, 0x011E	;  0x80011e
    2d8e:	8a e0       	ldi	r24, 0x0A	; 10
    2d90:	28 9f       	mul	r18, r24
    2d92:	90 01       	movw	r18, r0
    2d94:	11 24       	eor	r1, r1
    2d96:	24 17       	cp	r18, r20
    2d98:	35 07       	cpc	r19, r21
    2d9a:	08 f0       	brcs	.+2      	;  0x2d9e
    2d9c:	92 cf       	rjmp	.-220    	;  0x2cc2
    2d9e:	9f 5f       	subi	r25, 0xFF	; 255
    2da0:	90 93 58 02 	sts	0x0258, r25	;  0x800258
    2da4:	02 c0       	rjmp	.+4      	;  0x2daa
    2da6:	9f 3f       	cpi	r25, 0xFF	; 255
    2da8:	d1 f7       	brne	.-12     	;  0x2d9e
    2daa:	1d 81       	ldd	r17, Y+5	; 0x05
    2dac:	11 23       	and	r17, r17
    2dae:	59 f0       	breq	.+22     	;  0x2dc6
    2db0:	0e 94 d5 14 	call	0x29aa	;  0x29aa
    2db4:	9f ef       	ldi	r25, 0xFF	; 255
    2db6:	11 16       	cp	r1, r17
    2db8:	0c f4       	brge	.+2      	;  0x2dbc
    2dba:	91 e0       	ldi	r25, 0x01	; 1
    2dbc:	89 9f       	mul	r24, r25
    2dbe:	80 2d       	mov	r24, r0
    2dc0:	11 24       	eor	r1, r1
    2dc2:	80 93 5f 02 	sts	0x025F, r24	;  0x80025f
    2dc6:	1e 81       	ldd	r17, Y+6	; 0x06
    2dc8:	11 23       	and	r17, r17
    2dca:	59 f0       	breq	.+22     	;  0x2de2
    2dcc:	0e 94 d5 14 	call	0x29aa	;  0x29aa
    2dd0:	9f ef       	ldi	r25, 0xFF	; 255
    2dd2:	11 16       	cp	r1, r17
    2dd4:	0c f4       	brge	.+2      	;  0x2dd8
    2dd6:	91 e0       	ldi	r25, 0x01	; 1
    2dd8:	89 9f       	mul	r24, r25
    2dda:	80 2d       	mov	r24, r0
    2ddc:	11 24       	eor	r1, r1
    2dde:	80 93 60 02 	sts	0x0260, r24	;  0x800260
    2de2:	80 91 5f 02 	lds	r24, 0x025F	;  0x80025f
    2de6:	88 23       	and	r24, r24
    2de8:	09 f4       	brne	.+2      	;  0x2dec
    2dea:	6b cf       	rjmp	.-298    	;  0x2cc2
    2dec:	10 91 60 02 	lds	r17, 0x0260	;  0x800260
    2df0:	11 23       	and	r17, r17
    2df2:	09 f4       	brne	.+2      	;  0x2df6
    2df4:	66 cf       	rjmp	.-308    	;  0x2cc2
    2df6:	0e 94 89 14 	call	0x2912	;  0x2912
    2dfa:	88 23       	and	r24, r24
    2dfc:	51 f0       	breq	.+20     	;  0x2e12
    2dfe:	80 93 5f 02 	sts	0x025F, r24	;  0x80025f
    2e02:	81 2f       	mov	r24, r17
    2e04:	0e 94 89 14 	call	0x2912	;  0x2912
    2e08:	88 23       	and	r24, r24
    2e0a:	29 f0       	breq	.+10     	;  0x2e16
    2e0c:	80 93 60 02 	sts	0x0260, r24	;  0x800260
    2e10:	58 cf       	rjmp	.-336    	;  0x2cc2
    2e12:	81 e0       	ldi	r24, 0x01	; 1
    2e14:	f4 cf       	rjmp	.-24     	;  0x2dfe
    2e16:	81 e0       	ldi	r24, 0x01	; 1
    2e18:	f9 cf       	rjmp	.-14     	;  0x2e0c
    2e1a:	08 95       	ret
    2e1c:	fc 01       	movw	r30, r24
    2e1e:	68 0f       	add	r22, r24
    2e20:	79 1f       	adc	r23, r25
    2e22:	8f ef       	ldi	r24, 0xFF	; 255
    2e24:	91 e3       	ldi	r25, 0x31	; 49
    2e26:	6e 17       	cp	r22, r30
    2e28:	7f 07       	cpc	r23, r31
    2e2a:	09 f4       	brne	.+2      	;  0x2e2e
    2e2c:	08 95       	ret
    2e2e:	21 91       	ld	r18, Z+
    2e30:	82 27       	eor	r24, r18
    2e32:	28 e0       	ldi	r18, 0x08	; 8
    2e34:	30 e0       	ldi	r19, 0x00	; 0
    2e36:	87 ff       	sbrs	r24, 7
    2e38:	06 c0       	rjmp	.+12     	;  0x2e46
    2e3a:	88 0f       	add	r24, r24
    2e3c:	89 27       	eor	r24, r25
    2e3e:	21 50       	subi	r18, 0x01	; 1
    2e40:	31 09       	sbc	r19, r1
    2e42:	c9 f7       	brne	.-14     	;  0x2e36
    2e44:	f0 cf       	rjmp	.-32     	;  0x2e26
    2e46:	88 0f       	add	r24, r24
    2e48:	fa cf       	rjmp	.-12     	;  0x2e3e
    2e4a:	cf 93       	push	r28
    2e4c:	df 93       	push	r29
    2e4e:	ec 01       	movw	r28, r24
    2e50:	fb 01       	movw	r30, r22
    2e52:	85 81       	ldd	r24, Z+5	; 0x05
    2e54:	88 23       	and	r24, r24
    2e56:	09 f4       	brne	.+2      	;  0x2e5a
    2e58:	d2 c0       	rjmp	.+420    	;  0x2ffe
    2e5a:	9e 01       	movw	r18, r28
    2e5c:	30 57       	subi	r19, 0x70	; 112
    2e5e:	23 32       	cpi	r18, 0x23	; 35
    2e60:	31 05       	cpc	r19, r1
    2e62:	08 f0       	brcs	.+2      	;  0x2e66
    2e64:	b2 c0       	rjmp	.+356    	;  0x2fca
    2e66:	0e 94 c0 0c 	call	0x1980	;  0x1980
    2e6a:	90 93 81 02 	sts	0x0281, r25	;  0x800281
    2e6e:	80 93 80 02 	sts	0x0280, r24	;  0x800280
    2e72:	fe 01       	movw	r30, r28
    2e74:	e1 50       	subi	r30, 0x01	; 1
    2e76:	f0 47       	sbci	r31, 0x70	; 112
    2e78:	e2 32       	cpi	r30, 0x22	; 34
    2e7a:	f1 05       	cpc	r31, r1
    2e7c:	20 f4       	brcc	.+8      	;  0x2e86
    2e7e:	ed 58       	subi	r30, 0x8D	; 141
    2e80:	fa 4d       	sbci	r31, 0xDA	; 218
    2e82:	0c 94 ac 24 	jmp	0x4958	;  0x4958
    2e86:	80 91 80 02 	lds	r24, 0x0280	;  0x800280
    2e8a:	81 60       	ori	r24, 0x01	; 1
    2e8c:	80 93 80 02 	sts	0x0280, r24	;  0x800280
    2e90:	93 c0       	rjmp	.+294    	;  0x2fb8
    2e92:	80 91 81 02 	lds	r24, 0x0281	;  0x800281
    2e96:	88 60       	ori	r24, 0x08	; 8
    2e98:	80 93 81 02 	sts	0x0281, r24	;  0x800281
    2e9c:	8d c0       	rjmp	.+282    	;  0x2fb8
    2e9e:	80 91 80 02 	lds	r24, 0x0280	;  0x800280
    2ea2:	82 60       	ori	r24, 0x02	; 2
    2ea4:	f3 cf       	rjmp	.-26     	;  0x2e8c
    2ea6:	80 91 80 02 	lds	r24, 0x0280	;  0x800280
    2eaa:	84 60       	ori	r24, 0x04	; 4
    2eac:	ef cf       	rjmp	.-34     	;  0x2e8c
    2eae:	80 91 80 02 	lds	r24, 0x0280	;  0x800280
    2eb2:	88 60       	ori	r24, 0x08	; 8
    2eb4:	eb cf       	rjmp	.-42     	;  0x2e8c
    2eb6:	80 91 81 02 	lds	r24, 0x0281	;  0x800281
    2eba:	81 60       	ori	r24, 0x01	; 1
    2ebc:	ed cf       	rjmp	.-38     	;  0x2e98
    2ebe:	80 91 81 02 	lds	r24, 0x0281	;  0x800281
    2ec2:	82 60       	ori	r24, 0x02	; 2
    2ec4:	e9 cf       	rjmp	.-46     	;  0x2e98
    2ec6:	80 91 80 02 	lds	r24, 0x0280	;  0x800280
    2eca:	80 61       	ori	r24, 0x10	; 16
    2ecc:	df cf       	rjmp	.-66     	;  0x2e8c
    2ece:	80 91 80 02 	lds	r24, 0x0280	;  0x800280
    2ed2:	80 62       	ori	r24, 0x20	; 32
    2ed4:	db cf       	rjmp	.-74     	;  0x2e8c
    2ed6:	80 91 80 02 	lds	r24, 0x0280	;  0x800280
    2eda:	80 64       	ori	r24, 0x40	; 64
    2edc:	d7 cf       	rjmp	.-82     	;  0x2e8c
    2ede:	0e 94 ef 06 	call	0xdde	;  0xdde
    2ee2:	80 91 80 02 	lds	r24, 0x0280	;  0x800280
    2ee6:	80 68       	ori	r24, 0x80	; 128
    2ee8:	d1 cf       	rjmp	.-94     	;  0x2e8c
    2eea:	80 91 80 02 	lds	r24, 0x0280	;  0x800280
    2eee:	8c 60       	ori	r24, 0x0C	; 12
    2ef0:	cd cf       	rjmp	.-102    	;  0x2e8c
    2ef2:	80 91 81 02 	lds	r24, 0x0281	;  0x800281
    2ef6:	83 60       	ori	r24, 0x03	; 3
    2ef8:	cf cf       	rjmp	.-98     	;  0x2e98
    2efa:	80 91 80 02 	lds	r24, 0x0280	;  0x800280
    2efe:	8e 7f       	andi	r24, 0xFE	; 254
    2f00:	c5 cf       	rjmp	.-118    	;  0x2e8c
    2f02:	80 91 81 02 	lds	r24, 0x0281	;  0x800281
    2f06:	87 7f       	andi	r24, 0xF7	; 247
    2f08:	c7 cf       	rjmp	.-114    	;  0x2e98
    2f0a:	80 91 80 02 	lds	r24, 0x0280	;  0x800280
    2f0e:	8d 7f       	andi	r24, 0xFD	; 253
    2f10:	bd cf       	rjmp	.-134    	;  0x2e8c
    2f12:	80 91 80 02 	lds	r24, 0x0280	;  0x800280
    2f16:	8b 7f       	andi	r24, 0xFB	; 251
    2f18:	b9 cf       	rjmp	.-142    	;  0x2e8c
    2f1a:	80 91 80 02 	lds	r24, 0x0280	;  0x800280
    2f1e:	87 7f       	andi	r24, 0xF7	; 247
    2f20:	b5 cf       	rjmp	.-150    	;  0x2e8c
    2f22:	80 91 81 02 	lds	r24, 0x0281	;  0x800281
    2f26:	8e 7f       	andi	r24, 0xFE	; 254
    2f28:	b7 cf       	rjmp	.-146    	;  0x2e98
    2f2a:	80 91 81 02 	lds	r24, 0x0281	;  0x800281
    2f2e:	8d 7f       	andi	r24, 0xFD	; 253
    2f30:	b3 cf       	rjmp	.-154    	;  0x2e98
    2f32:	80 91 80 02 	lds	r24, 0x0280	;  0x800280
    2f36:	8f 7e       	andi	r24, 0xEF	; 239
    2f38:	a9 cf       	rjmp	.-174    	;  0x2e8c
    2f3a:	80 91 80 02 	lds	r24, 0x0280	;  0x800280
    2f3e:	8f 7d       	andi	r24, 0xDF	; 223
    2f40:	a5 cf       	rjmp	.-182    	;  0x2e8c
    2f42:	80 91 80 02 	lds	r24, 0x0280	;  0x800280
    2f46:	8f 7b       	andi	r24, 0xBF	; 191
    2f48:	a1 cf       	rjmp	.-190    	;  0x2e8c
    2f4a:	0e 94 ef 06 	call	0xdde	;  0xdde
    2f4e:	80 91 80 02 	lds	r24, 0x0280	;  0x800280
    2f52:	8f 77       	andi	r24, 0x7F	; 127
    2f54:	9b cf       	rjmp	.-202    	;  0x2e8c
    2f56:	80 91 80 02 	lds	r24, 0x0280	;  0x800280
    2f5a:	83 7f       	andi	r24, 0xF3	; 243
    2f5c:	97 cf       	rjmp	.-210    	;  0x2e8c
    2f5e:	80 91 81 02 	lds	r24, 0x0281	;  0x800281
    2f62:	8c 7f       	andi	r24, 0xFC	; 252
    2f64:	99 cf       	rjmp	.-206    	;  0x2e98
    2f66:	80 91 80 02 	lds	r24, 0x0280	;  0x800280
    2f6a:	82 fb       	bst	r24, 2
    2f6c:	99 27       	eor	r25, r25
    2f6e:	90 f9       	bld	r25, 0
    2f70:	21 e0       	ldi	r18, 0x01	; 1
    2f72:	92 27       	eor	r25, r18
    2f74:	90 fb       	bst	r25, 0
    2f76:	82 f9       	bld	r24, 2
    2f78:	90 fb       	bst	r25, 0
    2f7a:	83 f9       	bld	r24, 3
    2f7c:	87 cf       	rjmp	.-242    	;  0x2e8c
    2f7e:	80 91 81 02 	lds	r24, 0x0281	;  0x800281
    2f82:	98 2f       	mov	r25, r24
    2f84:	90 95       	com	r25
    2f86:	91 70       	andi	r25, 0x01	; 1
    2f88:	8e 7f       	andi	r24, 0xFE	; 254
    2f8a:	89 2b       	or	r24, r25
    2f8c:	90 fb       	bst	r25, 0
    2f8e:	81 f9       	bld	r24, 1
    2f90:	83 cf       	rjmp	.-250    	;  0x2e98
    2f92:	90 91 80 02 	lds	r25, 0x0280	;  0x800280
    2f96:	89 2f       	mov	r24, r25
    2f98:	8f 7b       	andi	r24, 0xBF	; 191
    2f9a:	96 ff       	sbrs	r25, 6
    2f9c:	80 64       	ori	r24, 0x40	; 64
    2f9e:	76 cf       	rjmp	.-276    	;  0x2e8c
    2fa0:	0e 94 ef 06 	call	0xdde	;  0xdde
    2fa4:	90 91 80 02 	lds	r25, 0x0280	;  0x800280
    2fa8:	89 2f       	mov	r24, r25
    2faa:	97 fb       	bst	r25, 7
    2fac:	87 f9       	bld	r24, 7
    2fae:	80 58       	subi	r24, 0x80	; 128
    2fb0:	6d cf       	rjmp	.-294    	;  0x2e8c
    2fb2:	81 e0       	ldi	r24, 0x01	; 1
    2fb4:	0e 94 56 0d 	call	0x1aac	;  0x1aac
    2fb8:	80 91 80 02 	lds	r24, 0x0280	;  0x800280
    2fbc:	90 91 81 02 	lds	r25, 0x0281	;  0x800281
    2fc0:	0e 94 c5 0c 	call	0x198a	;  0x198a
    2fc4:	0e 94 ef 06 	call	0xdde	;  0xdde
    2fc8:	80 e0       	ldi	r24, 0x00	; 0
    2fca:	df 91       	pop	r29
    2fcc:	cf 91       	pop	r28
    2fce:	08 95       	ret
    2fd0:	80 e0       	ldi	r24, 0x00	; 0
    2fd2:	f0 cf       	rjmp	.-32     	;  0x2fb4
    2fd4:	90 91 80 02 	lds	r25, 0x0280	;  0x800280
    2fd8:	89 2f       	mov	r24, r25
    2fda:	8f 7e       	andi	r24, 0xEF	; 239
    2fdc:	94 ff       	sbrs	r25, 4
    2fde:	80 61       	ori	r24, 0x10	; 16
    2fe0:	55 cf       	rjmp	.-342    	;  0x2e8c
    2fe2:	90 91 80 02 	lds	r25, 0x0280	;  0x800280
    2fe6:	89 2f       	mov	r24, r25
    2fe8:	8e 7f       	andi	r24, 0xFE	; 254
    2fea:	90 ff       	sbrs	r25, 0
    2fec:	81 60       	ori	r24, 0x01	; 1
    2fee:	4e cf       	rjmp	.-356    	;  0x2e8c
    2ff0:	90 91 81 02 	lds	r25, 0x0281	;  0x800281
    2ff4:	89 2f       	mov	r24, r25
    2ff6:	87 7f       	andi	r24, 0xF7	; 247
    2ff8:	93 ff       	sbrs	r25, 3
    2ffa:	88 60       	ori	r24, 0x08	; 8
    2ffc:	4d cf       	rjmp	.-358    	;  0x2e98
    2ffe:	81 e0       	ldi	r24, 0x01	; 1
    3000:	e4 cf       	rjmp	.-56     	;  0x2fca
    3002:	8b 31       	cpi	r24, 0x1B	; 27
    3004:	09 f4       	brne	.+2      	;  0x3008
    3006:	65 c0       	rjmp	.+202    	;  0x30d2
    3008:	40 f5       	brcc	.+80     	;  0x305a
    300a:	8b 30       	cpi	r24, 0x0B	; 11
    300c:	71 f0       	breq	.+28     	;  0x302a
    300e:	78 f4       	brcc	.+30     	;  0x302e
    3010:	86 30       	cpi	r24, 0x06	; 6
    3012:	09 f4       	brne	.+2      	;  0x3016
    3014:	47 c0       	rjmp	.+142    	;  0x30a4
    3016:	20 f4       	brcc	.+8      	;  0x3020
    3018:	85 30       	cpi	r24, 0x05	; 5
    301a:	59 f1       	breq	.+86     	;  0x3072
    301c:	80 e0       	ldi	r24, 0x00	; 0
    301e:	08 95       	ret
    3020:	87 30       	cpi	r24, 0x07	; 7
    3022:	09 f4       	brne	.+2      	;  0x3026
    3024:	48 c0       	rjmp	.+144    	;  0x30b6
    3026:	88 30       	cpi	r24, 0x08	; 8
    3028:	c9 f7       	brne	.-14     	;  0x301c
    302a:	81 e0       	ldi	r24, 0x01	; 1
    302c:	08 95       	ret
    302e:	80 31       	cpi	r24, 0x10	; 16
    3030:	09 f4       	brne	.+2      	;  0x3034
    3032:	5d c0       	rjmp	.+186    	;  0x30ee
    3034:	68 f4       	brcc	.+26     	;  0x3050
    3036:	8e 30       	cpi	r24, 0x0E	; 14
    3038:	89 f7       	brne	.-30     	;  0x301c
    303a:	90 91 32 02 	lds	r25, 0x0232	;  0x800232
    303e:	89 2f       	mov	r24, r25
    3040:	8b 7f       	andi	r24, 0xFB	; 251
    3042:	92 ff       	sbrs	r25, 2
    3044:	84 60       	ori	r24, 0x04	; 4
    3046:	80 93 32 02 	sts	0x0232, r24	;  0x800232
    304a:	82 fd       	sbrc	r24, 2
    304c:	4c c0       	rjmp	.+152    	;  0x30e6
    304e:	ed cf       	rjmp	.-38     	;  0x302a
    3050:	86 31       	cpi	r24, 0x16	; 22
    3052:	59 f3       	breq	.-42     	;  0x302a
    3054:	89 31       	cpi	r24, 0x19	; 25
    3056:	49 f3       	breq	.-46     	;  0x302a
    3058:	e1 cf       	rjmp	.-62     	;  0x301c
    305a:	8a 32       	cpi	r24, 0x2A	; 42
    305c:	01 f1       	breq	.+64     	;  0x309e
    305e:	60 f4       	brcc	.+24     	;  0x3078
    3060:	87 32       	cpi	r24, 0x27	; 39
    3062:	b1 f0       	breq	.+44     	;  0x3090
    3064:	20 f4       	brcc	.+8      	;  0x306e
    3066:	8e 31       	cpi	r24, 0x1E	; 30
    3068:	c8 f2       	brcs	.-78     	;  0x301c
    306a:	8d 51       	subi	r24, 0x1D	; 29
    306c:	4c c0       	rjmp	.+152    	;  0x3106
    306e:	89 32       	cpi	r24, 0x29	; 41
    3070:	a9 f6       	brne	.-86     	;  0x301c
    3072:	0e 94 9d 02 	call	0x53a	;  0x53a
    3076:	d9 cf       	rjmp	.-78     	;  0x302a
    3078:	83 34       	cpi	r24, 0x43	; 67
    307a:	40 f4       	brcc	.+16     	;  0x308c
    307c:	8a 33       	cpi	r24, 0x3A	; 58
    307e:	08 f0       	brcs	.+2      	;  0x3082
    3080:	41 c0       	rjmp	.+130    	;  0x3104
    3082:	85 33       	cpi	r24, 0x35	; 53
    3084:	29 f0       	breq	.+10     	;  0x3090
    3086:	88 33       	cpi	r24, 0x38	; 56
    3088:	81 f2       	breq	.-96     	;  0x302a
    308a:	c8 cf       	rjmp	.-112    	;  0x301c
    308c:	83 34       	cpi	r24, 0x43	; 67
    308e:	31 f6       	brne	.-116    	;  0x301c
    3090:	81 e0       	ldi	r24, 0x01	; 1
    3092:	90 e0       	ldi	r25, 0x00	; 0
    3094:	0e 94 3c 07 	call	0xe78	;  0xe78
    3098:	0e 94 ef 06 	call	0xdde	;  0xdde
    309c:	c6 cf       	rjmp	.-116    	;  0x302a
    309e:	0e 94 49 0d 	call	0x1a92	;  0x1a92
    30a2:	c3 cf       	rjmp	.-122    	;  0x302a
    30a4:	80 91 32 02 	lds	r24, 0x0232	;  0x800232
    30a8:	80 7f       	andi	r24, 0xF0	; 240
    30aa:	80 93 32 02 	sts	0x0232, r24	;  0x800232
    30ae:	81 e0       	ldi	r24, 0x01	; 1
    30b0:	80 93 64 02 	sts	0x0264, r24	;  0x800264
    30b4:	08 95       	ret
    30b6:	90 91 32 02 	lds	r25, 0x0232	;  0x800232
    30ba:	89 2f       	mov	r24, r25
    30bc:	8e 7f       	andi	r24, 0xFE	; 254
    30be:	90 ff       	sbrs	r25, 0
    30c0:	81 60       	ori	r24, 0x01	; 1
    30c2:	80 93 32 02 	sts	0x0232, r24	;  0x800232
    30c6:	80 fd       	sbrc	r24, 0
    30c8:	b0 cf       	rjmp	.-160    	;  0x302a
    30ca:	81 7f       	andi	r24, 0xF1	; 241
    30cc:	80 93 32 02 	sts	0x0232, r24	;  0x800232
    30d0:	ac cf       	rjmp	.-168    	;  0x302a
    30d2:	90 91 32 02 	lds	r25, 0x0232	;  0x800232
    30d6:	89 2f       	mov	r24, r25
    30d8:	8d 7f       	andi	r24, 0xFD	; 253
    30da:	91 ff       	sbrs	r25, 1
    30dc:	82 60       	ori	r24, 0x02	; 2
    30de:	80 93 32 02 	sts	0x0232, r24	;  0x800232
    30e2:	81 ff       	sbrs	r24, 1
    30e4:	a2 cf       	rjmp	.-188    	;  0x302a
    30e6:	80 91 32 02 	lds	r24, 0x0232	;  0x800232
    30ea:	81 60       	ori	r24, 0x01	; 1
    30ec:	ef cf       	rjmp	.-34     	;  0x30cc
    30ee:	90 91 32 02 	lds	r25, 0x0232	;  0x800232
    30f2:	89 2f       	mov	r24, r25
    30f4:	87 7f       	andi	r24, 0xF7	; 247
    30f6:	93 ff       	sbrs	r25, 3
    30f8:	88 60       	ori	r24, 0x08	; 8
    30fa:	80 93 32 02 	sts	0x0232, r24	;  0x800232
    30fe:	83 fd       	sbrc	r24, 3
    3100:	f2 cf       	rjmp	.-28     	;  0x30e6
    3102:	93 cf       	rjmp	.-218    	;  0x302a
    3104:	89 53       	subi	r24, 0x39	; 57
    3106:	21 e0       	ldi	r18, 0x01	; 1
    3108:	30 e0       	ldi	r19, 0x00	; 0
    310a:	a9 01       	movw	r20, r18
    310c:	02 c0       	rjmp	.+4      	;  0x3112
    310e:	44 0f       	add	r20, r20
    3110:	55 1f       	adc	r21, r21
    3112:	8a 95       	dec	r24
    3114:	e2 f7       	brpl	.-8      	;  0x310e
    3116:	ca 01       	movw	r24, r20
    3118:	bd cf       	rjmp	.-134    	;  0x3094
    311a:	80 e0       	ldi	r24, 0x00	; 0
    311c:	08 95       	ret
    311e:	0e 94 8d 18 	call	0x311a	;  0x311a
    3122:	08 95       	ret
    3124:	cf 93       	push	r28
    3126:	c8 2f       	mov	r28, r24
    3128:	80 91 64 02 	lds	r24, 0x0264	;  0x800264
    312c:	81 30       	cpi	r24, 0x01	; 1
    312e:	b9 f0       	breq	.+46     	;  0x315e
    3130:	88 23       	and	r24, r24
    3132:	31 f0       	breq	.+12     	;  0x3140
    3134:	82 30       	cpi	r24, 0x02	; 2
    3136:	a1 f1       	breq	.+104    	;  0x31a0
    3138:	10 92 64 02 	sts	0x0264, r1	;  0x800264
    313c:	80 e0       	ldi	r24, 0x00	; 0
    313e:	0d c0       	rjmp	.+26     	;  0x315a
    3140:	0e 94 a4 0b 	call	0x1748	;  0x1748
    3144:	82 32       	cpi	r24, 0x22	; 34
    3146:	d1 f7       	brne	.-12     	;  0x313c
    3148:	8c 2f       	mov	r24, r28
    314a:	0e 94 8d 18 	call	0x311a	;  0x311a
    314e:	81 11       	cpse	r24, r1
    3150:	1b c0       	rjmp	.+54     	;  0x3188
    3152:	8c 2f       	mov	r24, r28
    3154:	0e 94 01 18 	call	0x3002	;  0x3002
    3158:	81 70       	andi	r24, 0x01	; 1
    315a:	cf 91       	pop	r28
    315c:	08 95       	ret
    315e:	0e 94 a4 0b 	call	0x1748	;  0x1748
    3162:	82 32       	cpi	r24, 0x22	; 34
    3164:	89 f3       	breq	.-30     	;  0x3148
    3166:	8c 2f       	mov	r24, r28
    3168:	0e 94 8f 18 	call	0x311e	;  0x311e
    316c:	81 11       	cpse	r24, r1
    316e:	0a c0       	rjmp	.+20     	;  0x3184
    3170:	c4 31       	cpi	r28, 0x14	; 20
    3172:	99 f0       	breq	.+38     	;  0x319a
    3174:	60 f4       	brcc	.+24     	;  0x318e
    3176:	cb 30       	cpi	r28, 0x0B	; 11
    3178:	29 f0       	breq	.+10     	;  0x3184
    317a:	c0 31       	cpi	r28, 0x10	; 16
    317c:	69 f7       	brne	.-38     	;  0x3158
    317e:	82 e0       	ldi	r24, 0x02	; 2
    3180:	80 93 64 02 	sts	0x0264, r24	;  0x800264
    3184:	81 e0       	ldi	r24, 0x01	; 1
    3186:	e8 cf       	rjmp	.-48     	;  0x3158
    3188:	81 e0       	ldi	r24, 0x01	; 1
    318a:	90 e0       	ldi	r25, 0x00	; 0
    318c:	e5 cf       	rjmp	.-54     	;  0x3158
    318e:	c9 32       	cpi	r28, 0x29	; 41
    3190:	21 f0       	breq	.+8      	;  0x319a
    3192:	c8 33       	cpi	r28, 0x38	; 56
    3194:	b9 f3       	breq	.-18     	;  0x3184
    3196:	80 e0       	ldi	r24, 0x00	; 0
    3198:	df cf       	rjmp	.-66     	;  0x3158
    319a:	10 92 64 02 	sts	0x0264, r1	;  0x800264
    319e:	fb cf       	rjmp	.-10     	;  0x3196
    31a0:	c9 32       	cpi	r28, 0x29	; 41
    31a2:	09 f4       	brne	.+2      	;  0x31a6
    31a4:	40 c0       	rjmp	.+128    	;  0x3226
    31a6:	f0 f4       	brcc	.+60     	;  0x31e4
    31a8:	c4 31       	cpi	r28, 0x14	; 20
    31aa:	e9 f1       	breq	.+122    	;  0x3226
    31ac:	a8 f4       	brcc	.+42     	;  0x31d8
    31ae:	81 e0       	ldi	r24, 0x01	; 1
    31b0:	c7 30       	cpi	r28, 0x07	; 7
    31b2:	99 f6       	brne	.-90     	;  0x315a
    31b4:	80 93 22 01 	sts	0x0122, r24	;  0x800122
    31b8:	84 e1       	ldi	r24, 0x14	; 20
    31ba:	80 93 21 01 	sts	0x0121, r24	;  0x800121
    31be:	8a e0       	ldi	r24, 0x0A	; 10
    31c0:	80 93 20 01 	sts	0x0120, r24	;  0x800120
    31c4:	8e e1       	ldi	r24, 0x1E	; 30
    31c6:	80 93 1f 01 	sts	0x011F, r24	;  0x80011f
    31ca:	88 e0       	ldi	r24, 0x08	; 8
    31cc:	80 93 1c 01 	sts	0x011C, r24	;  0x80011c
    31d0:	88 e2       	ldi	r24, 0x28	; 40
    31d2:	80 93 1b 01 	sts	0x011B, r24	;  0x80011b
    31d6:	04 c0       	rjmp	.+8      	;  0x31e0
    31d8:	82 ee       	ldi	r24, 0xE2	; 226
    31da:	8c 0f       	add	r24, r28
    31dc:	8a 30       	cpi	r24, 0x0A	; 10
    31de:	70 f1       	brcs	.+92     	;  0x323c
    31e0:	81 e0       	ldi	r24, 0x01	; 1
    31e2:	bb cf       	rjmp	.-138    	;  0x315a
    31e4:	c0 35       	cpi	r28, 0x50	; 80
    31e6:	09 f4       	brne	.+2      	;  0x31ea
    31e8:	50 c0       	rjmp	.+160    	;  0x328a
    31ea:	b8 f4       	brcc	.+46     	;  0x321a
    31ec:	8a e0       	ldi	r24, 0x0A	; 10
    31ee:	cf 34       	cpi	r28, 0x4F	; 79
    31f0:	b9 f7       	brne	.-18     	;  0x31e0
    31f2:	e0 91 61 02 	lds	r30, 0x0261	;  0x800261
    31f6:	f0 91 62 02 	lds	r31, 0x0262	;  0x800262
    31fa:	30 97       	sbiw	r30, 0x00	; 0
    31fc:	89 f3       	breq	.-30     	;  0x31e0
    31fe:	20 81       	ld	r18, Z
    3200:	08 2e       	mov	r0, r24
    3202:	00 0c       	add	r0, r0
    3204:	99 0b       	sbc	r25, r25
    3206:	82 0f       	add	r24, r18
    3208:	91 1d       	adc	r25, r1
    320a:	8f 3f       	cpi	r24, 0xFF	; 255
    320c:	91 05       	cpc	r25, r1
    320e:	09 f0       	breq	.+2      	;  0x3212
    3210:	0c f4       	brge	.+2      	;  0x3214
    3212:	3f c0       	rjmp	.+126    	;  0x3292
    3214:	8f ef       	ldi	r24, 0xFF	; 255
    3216:	80 83       	st	Z, r24
    3218:	e3 cf       	rjmp	.-58     	;  0x31e0
    321a:	c1 35       	cpi	r28, 0x51	; 81
    321c:	c1 f1       	breq	.+112    	;  0x328e
    321e:	81 e0       	ldi	r24, 0x01	; 1
    3220:	c2 35       	cpi	r28, 0x52	; 82
    3222:	39 f3       	breq	.-50     	;  0x31f2
    3224:	9a cf       	rjmp	.-204    	;  0x315a
    3226:	80 91 63 02 	lds	r24, 0x0263	;  0x800263
    322a:	88 23       	and	r24, r24
    322c:	c9 f2       	breq	.-78     	;  0x31e0
    322e:	10 92 63 02 	sts	0x0263, r1	;  0x800263
    3232:	10 92 62 02 	sts	0x0262, r1	;  0x800262
    3236:	10 92 61 02 	sts	0x0261, r1	;  0x800261
    323a:	d2 cf       	rjmp	.-92     	;  0x31e0
    323c:	cd 51       	subi	r28, 0x1D	; 29
    323e:	c0 93 63 02 	sts	0x0263, r28	;  0x800263
    3242:	c3 30       	cpi	r28, 0x03	; 3
    3244:	c9 f0       	breq	.+50     	;  0x3278
    3246:	48 f4       	brcc	.+18     	;  0x325a
    3248:	c1 30       	cpi	r28, 0x01	; 1
    324a:	99 f0       	breq	.+38     	;  0x3272
    324c:	81 e2       	ldi	r24, 0x21	; 33
    324e:	91 e0       	ldi	r25, 0x01	; 1
    3250:	c2 30       	cpi	r28, 0x02	; 2
    3252:	51 f0       	breq	.+20     	;  0x3268
    3254:	10 92 63 02 	sts	0x0263, r1	;  0x800263
    3258:	c3 cf       	rjmp	.-122    	;  0x31e0
    325a:	c5 30       	cpi	r28, 0x05	; 5
    325c:	99 f0       	breq	.+38     	;  0x3284
    325e:	78 f0       	brcs	.+30     	;  0x327e
    3260:	8b e1       	ldi	r24, 0x1B	; 27
    3262:	91 e0       	ldi	r25, 0x01	; 1
    3264:	c6 30       	cpi	r28, 0x06	; 6
    3266:	b1 f7       	brne	.-20     	;  0x3254
    3268:	90 93 62 02 	sts	0x0262, r25	;  0x800262
    326c:	80 93 61 02 	sts	0x0261, r24	;  0x800261
    3270:	b7 cf       	rjmp	.-146    	;  0x31e0
    3272:	82 e2       	ldi	r24, 0x22	; 34
    3274:	91 e0       	ldi	r25, 0x01	; 1
    3276:	f8 cf       	rjmp	.-16     	;  0x3268
    3278:	80 e2       	ldi	r24, 0x20	; 32
    327a:	91 e0       	ldi	r25, 0x01	; 1
    327c:	f5 cf       	rjmp	.-22     	;  0x3268
    327e:	8f e1       	ldi	r24, 0x1F	; 31
    3280:	91 e0       	ldi	r25, 0x01	; 1
    3282:	f2 cf       	rjmp	.-28     	;  0x3268
    3284:	8c e1       	ldi	r24, 0x1C	; 28
    3286:	91 e0       	ldi	r25, 0x01	; 1
    3288:	ef cf       	rjmp	.-34     	;  0x3268
    328a:	86 ef       	ldi	r24, 0xF6	; 246
    328c:	b2 cf       	rjmp	.-156    	;  0x31f2
    328e:	8f ef       	ldi	r24, 0xFF	; 255
    3290:	b0 cf       	rjmp	.-160    	;  0x31f2
    3292:	97 ff       	sbrs	r25, 7
    3294:	c0 cf       	rjmp	.-128    	;  0x3216
    3296:	10 82       	st	Z, r1
    3298:	a3 cf       	rjmp	.-186    	;  0x31e0
    329a:	cf 93       	push	r28
    329c:	df 93       	push	r29
    329e:	eb 01       	movw	r28, r22
    32a0:	86 31       	cpi	r24, 0x16	; 22
    32a2:	9c 47       	sbci	r25, 0x7C	; 124
    32a4:	11 f5       	brne	.+68     	;  0x32ea
    32a6:	0e 94 a4 0b 	call	0x1748	;  0x1748
    32aa:	9d 81       	ldd	r25, Y+5	; 0x05
    32ac:	99 23       	and	r25, r25
    32ae:	99 f0       	breq	.+38     	;  0x32d6
    32b0:	8a 7a       	andi	r24, 0xAA	; 170
    32b2:	91 e0       	ldi	r25, 0x01	; 1
    32b4:	09 f4       	brne	.+2      	;  0x32b8
    32b6:	90 e0       	ldi	r25, 0x00	; 0
    32b8:	90 93 65 02 	sts	0x0265, r25	;  0x800265
    32bc:	81 11       	cpse	r24, r1
    32be:	09 c0       	rjmp	.+18     	;  0x32d2
    32c0:	89 e2       	ldi	r24, 0x29	; 41
    32c2:	0e 94 7c 0b 	call	0x16f8	;  0x16f8
    32c6:	0e 94 fd 0b 	call	0x17fa	;  0x17fa
    32ca:	80 e0       	ldi	r24, 0x00	; 0
    32cc:	df 91       	pop	r29
    32ce:	cf 91       	pop	r28
    32d0:	08 95       	ret
    32d2:	85 e3       	ldi	r24, 0x35	; 53
    32d4:	f6 cf       	rjmp	.-20     	;  0x32c2
    32d6:	80 91 65 02 	lds	r24, 0x0265	;  0x800265
    32da:	81 11       	cpse	r24, r1
    32dc:	04 c0       	rjmp	.+8      	;  0x32e6
    32de:	89 e2       	ldi	r24, 0x29	; 41
    32e0:	0e 94 84 0b 	call	0x1708	;  0x1708
    32e4:	f0 cf       	rjmp	.-32     	;  0x32c6
    32e6:	85 e3       	ldi	r24, 0x35	; 53
    32e8:	fb cf       	rjmp	.-10     	;  0x32e0
    32ea:	81 e0       	ldi	r24, 0x01	; 1
    32ec:	ef cf       	rjmp	.-34     	;  0x32cc
    32ee:	0f 93       	push	r16
    32f0:	1f 93       	push	r17
    32f2:	cf 93       	push	r28
    32f4:	df 93       	push	r29
    32f6:	c4 2f       	mov	r28, r20
    32f8:	d2 2f       	mov	r29, r18
    32fa:	fc 01       	movw	r30, r24
    32fc:	85 81       	ldd	r24, Z+5	; 0x05
    32fe:	88 23       	and	r24, r24
    3300:	c9 f0       	breq	.+50     	;  0x3334
    3302:	40 93 68 02 	sts	0x0268, r20	;  0x800268
    3306:	0e 94 c5 1b 	call	0x378a	;  0x378a
    330a:	90 93 67 02 	sts	0x0267, r25	;  0x800267
    330e:	80 93 66 02 	sts	0x0266, r24	;  0x800266
    3312:	80 e2       	ldi	r24, 0x20	; 32
    3314:	8c 0f       	add	r24, r28
    3316:	88 30       	cpi	r24, 0x08	; 8
    3318:	40 f4       	brcc	.+16     	;  0x332a
    331a:	c7 70       	andi	r28, 0x07	; 7
    331c:	81 e0       	ldi	r24, 0x01	; 1
    331e:	01 c0       	rjmp	.+2      	;  0x3322
    3320:	88 0f       	add	r24, r24
    3322:	ca 95       	dec	r28
    3324:	ea f7       	brpl	.-6      	;  0x3320
    3326:	0e 94 9b 04 	call	0x936	;  0x936
    332a:	df 91       	pop	r29
    332c:	cf 91       	pop	r28
    332e:	1f 91       	pop	r17
    3330:	0f 91       	pop	r16
    3332:	08 95       	ret
    3334:	10 91 68 02 	lds	r17, 0x0268	;  0x800268
    3338:	14 13       	cpse	r17, r20
    333a:	32 c0       	rjmp	.+100    	;  0x33a0
    333c:	80 91 66 02 	lds	r24, 0x0266	;  0x800266
    3340:	90 91 67 02 	lds	r25, 0x0267	;  0x800267
    3344:	0e 94 dd 1b 	call	0x37ba	;  0x37ba
    3348:	88 3c       	cpi	r24, 0xC8	; 200
    334a:	91 05       	cpc	r25, r1
    334c:	48 f5       	brcc	.+82     	;  0x33a0
    334e:	c0 e2       	ldi	r28, 0x20	; 32
    3350:	cd 0f       	add	r28, r29
    3352:	1d 17       	cp	r17, r29
    3354:	b9 f0       	breq	.+46     	;  0x3384
    3356:	80 e2       	ldi	r24, 0x20	; 32
    3358:	81 0f       	add	r24, r17
    335a:	88 30       	cpi	r24, 0x08	; 8
    335c:	40 f4       	brcc	.+16     	;  0x336e
    335e:	17 70       	andi	r17, 0x07	; 7
    3360:	81 e0       	ldi	r24, 0x01	; 1
    3362:	01 c0       	rjmp	.+2      	;  0x3366
    3364:	88 0f       	add	r24, r24
    3366:	1a 95       	dec	r17
    3368:	ea f7       	brpl	.-6      	;  0x3364
    336a:	0e 94 a2 04 	call	0x944	;  0x944
    336e:	c8 30       	cpi	r28, 0x08	; 8
    3370:	48 f4       	brcc	.+18     	;  0x3384
    3372:	81 e0       	ldi	r24, 0x01	; 1
    3374:	9d 2f       	mov	r25, r29
    3376:	97 70       	andi	r25, 0x07	; 7
    3378:	01 c0       	rjmp	.+2      	;  0x337c
    337a:	88 0f       	add	r24, r24
    337c:	9a 95       	dec	r25
    337e:	ea f7       	brpl	.-6      	;  0x337a
    3380:	0e 94 9b 04 	call	0x936	;  0x936
    3384:	80 2f       	mov	r24, r16
    3386:	0e 94 92 04 	call	0x924	;  0x924
    338a:	c8 30       	cpi	r28, 0x08	; 8
    338c:	70 f6       	brcc	.-100    	;  0x332a
    338e:	d7 70       	andi	r29, 0x07	; 7
    3390:	81 e0       	ldi	r24, 0x01	; 1
    3392:	01 c0       	rjmp	.+2      	;  0x3396
    3394:	88 0f       	add	r24, r24
    3396:	da 95       	dec	r29
    3398:	ea f7       	brpl	.-6      	;  0x3394
    339a:	0e 94 a2 04 	call	0x944	;  0x944
    339e:	c5 cf       	rjmp	.-118    	;  0x332a
    33a0:	80 e2       	ldi	r24, 0x20	; 32
    33a2:	8c 0f       	add	r24, r28
    33a4:	88 30       	cpi	r24, 0x08	; 8
    33a6:	08 f6       	brcc	.-126    	;  0x332a
    33a8:	c7 70       	andi	r28, 0x07	; 7
    33aa:	81 e0       	ldi	r24, 0x01	; 1
    33ac:	01 c0       	rjmp	.+2      	;  0x33b0
    33ae:	88 0f       	add	r24, r24
    33b0:	ca 95       	dec	r28
    33b2:	ea f7       	brpl	.-6      	;  0x33ae
    33b4:	f2 cf       	rjmp	.-28     	;  0x339a
    33b6:	0f 93       	push	r16
    33b8:	db 01       	movw	r26, r22
    33ba:	88 51       	subi	r24, 0x18	; 24
    33bc:	9c 47       	sbci	r25, 0x7C	; 124
    33be:	87 30       	cpi	r24, 0x07	; 7
    33c0:	91 05       	cpc	r25, r1
    33c2:	a0 f5       	brcc	.+104    	;  0x342c
    33c4:	fc 01       	movw	r30, r24
    33c6:	eb 56       	subi	r30, 0x6B	; 107
    33c8:	fa 4d       	sbci	r31, 0xDA	; 218
    33ca:	0c 94 ac 24 	jmp	0x4958	;  0x4958
    33ce:	06 e2       	ldi	r16, 0x26	; 38
    33d0:	21 ee       	ldi	r18, 0xE1	; 225
    33d2:	41 ee       	ldi	r20, 0xE1	; 225
    33d4:	6a e1       	ldi	r22, 0x1A	; 26
    33d6:	7c e7       	ldi	r23, 0x7C	; 124
    33d8:	cd 01       	movw	r24, r26
    33da:	0e 94 77 19 	call	0x32ee	;  0x32ee
    33de:	80 e0       	ldi	r24, 0x00	; 0
    33e0:	0f 91       	pop	r16
    33e2:	08 95       	ret
    33e4:	07 e2       	ldi	r16, 0x27	; 39
    33e6:	25 ee       	ldi	r18, 0xE5	; 229
    33e8:	45 ee       	ldi	r20, 0xE5	; 229
    33ea:	6b e1       	ldi	r22, 0x1B	; 27
    33ec:	7c e7       	ldi	r23, 0x7C	; 124
    33ee:	f4 cf       	rjmp	.-24     	;  0x33d8
    33f0:	06 e2       	ldi	r16, 0x26	; 38
    33f2:	21 ee       	ldi	r18, 0xE1	; 225
    33f4:	40 ee       	ldi	r20, 0xE0	; 224
    33f6:	68 e1       	ldi	r22, 0x18	; 24
    33f8:	7c e7       	ldi	r23, 0x7C	; 124
    33fa:	ee cf       	rjmp	.-36     	;  0x33d8
    33fc:	07 e2       	ldi	r16, 0x27	; 39
    33fe:	25 ee       	ldi	r18, 0xE5	; 229
    3400:	44 ee       	ldi	r20, 0xE4	; 228
    3402:	69 e1       	ldi	r22, 0x19	; 25
    3404:	7c e7       	ldi	r23, 0x7C	; 124
    3406:	e8 cf       	rjmp	.-48     	;  0x33d8
    3408:	06 e2       	ldi	r16, 0x26	; 38
    340a:	21 ee       	ldi	r18, 0xE1	; 225
    340c:	42 ee       	ldi	r20, 0xE2	; 226
    340e:	6c e1       	ldi	r22, 0x1C	; 28
    3410:	7c e7       	ldi	r23, 0x7C	; 124
    3412:	e2 cf       	rjmp	.-60     	;  0x33d8
    3414:	07 e2       	ldi	r16, 0x27	; 39
    3416:	25 ee       	ldi	r18, 0xE5	; 229
    3418:	46 ee       	ldi	r20, 0xE6	; 230
    341a:	6d e1       	ldi	r22, 0x1D	; 29
    341c:	7c e7       	ldi	r23, 0x7C	; 124
    341e:	dc cf       	rjmp	.-72     	;  0x33d8
    3420:	08 e2       	ldi	r16, 0x28	; 40
    3422:	21 e0       	ldi	r18, 0x01	; 1
    3424:	45 ee       	ldi	r20, 0xE5	; 229
    3426:	6e e1       	ldi	r22, 0x1E	; 30
    3428:	7c e7       	ldi	r23, 0x7C	; 124
    342a:	d6 cf       	rjmp	.-84     	;  0x33d8
    342c:	15 96       	adiw	r26, 0x05	; 5
    342e:	8c 91       	ld	r24, X
    3430:	88 23       	and	r24, r24
    3432:	19 f0       	breq	.+6      	;  0x343a
    3434:	10 92 68 02 	sts	0x0268, r1	;  0x800268
    3438:	d3 cf       	rjmp	.-90     	;  0x33e0
    343a:	81 e0       	ldi	r24, 0x01	; 1
    343c:	d1 cf       	rjmp	.-94     	;  0x33e0
    343e:	90 93 6f 02 	sts	0x026F, r25	;  0x80026f
    3442:	80 93 6e 02 	sts	0x026E, r24	;  0x80026e
    3446:	08 95       	ret
    3448:	0e 94 68 12 	call	0x24d0	;  0x24d0
    344c:	81 11       	cpse	r24, r1
    344e:	03 c0       	rjmp	.+6      	;  0x3456
    3450:	80 91 69 02 	lds	r24, 0x0269	;  0x800269
    3454:	08 95       	ret
    3456:	e0 91 6e 02 	lds	r30, 0x026E	;  0x80026e
    345a:	f0 91 6f 02 	lds	r31, 0x026F	;  0x80026f
    345e:	30 97       	sbiw	r30, 0x00	; 0
    3460:	29 f0       	breq	.+10     	;  0x346c
    3462:	01 90       	ld	r0, Z+
    3464:	f0 81       	ld	r31, Z
    3466:	e0 2d       	mov	r30, r0
    3468:	09 95       	icall
    346a:	08 95       	ret
    346c:	80 e0       	ldi	r24, 0x00	; 0
    346e:	08 95       	ret
    3470:	0e 94 24 1a 	call	0x3448	;  0x3448
    3474:	08 95       	ret
    3476:	e0 91 6e 02 	lds	r30, 0x026E	;  0x80026e
    347a:	f0 91 6f 02 	lds	r31, 0x026F	;  0x80026f
    347e:	30 97       	sbiw	r30, 0x00	; 0
    3480:	21 f0       	breq	.+8      	;  0x348a
    3482:	02 80       	ldd	r0, Z+2	; 0x02
    3484:	f3 81       	ldd	r31, Z+3	; 0x03
    3486:	e0 2d       	mov	r30, r0
    3488:	09 95       	icall
    348a:	08 95       	ret
    348c:	e0 91 6e 02 	lds	r30, 0x026E	;  0x80026e
    3490:	f0 91 6f 02 	lds	r31, 0x026F	;  0x80026f
    3494:	30 97       	sbiw	r30, 0x00	; 0
    3496:	39 f0       	breq	.+14     	;  0x34a6
    3498:	22 e0       	ldi	r18, 0x02	; 2
    349a:	dc 01       	movw	r26, r24
    349c:	2c 93       	st	X, r18
    349e:	04 80       	ldd	r0, Z+4	; 0x04
    34a0:	f5 81       	ldd	r31, Z+5	; 0x05
    34a2:	e0 2d       	mov	r30, r0
    34a4:	09 95       	icall
    34a6:	08 95       	ret
    34a8:	a3 e0       	ldi	r26, 0x03	; 3
    34aa:	b0 e0       	ldi	r27, 0x00	; 0
    34ac:	ea e5       	ldi	r30, 0x5A	; 90
    34ae:	fa e1       	ldi	r31, 0x1A	; 26
    34b0:	0c 94 c2 24 	jmp	0x4984	;  0x4984
    34b4:	20 91 6c 02 	lds	r18, 0x026C	;  0x80026c
    34b8:	30 91 6d 02 	lds	r19, 0x026D	;  0x80026d
    34bc:	28 17       	cp	r18, r24
    34be:	39 07       	cpc	r19, r25
    34c0:	a1 f0       	breq	.+40     	;  0x34ea
    34c2:	90 93 6d 02 	sts	0x026D, r25	;  0x80026d
    34c6:	80 93 6c 02 	sts	0x026C, r24	;  0x80026c
    34ca:	e0 91 6e 02 	lds	r30, 0x026E	;  0x80026e
    34ce:	f0 91 6f 02 	lds	r31, 0x026F	;  0x80026f
    34d2:	30 97       	sbiw	r30, 0x00	; 0
    34d4:	51 f0       	breq	.+20     	;  0x34ea
    34d6:	23 e0       	ldi	r18, 0x03	; 3
    34d8:	29 83       	std	Y+1, r18	; 0x01
    34da:	9b 83       	std	Y+3, r25	; 0x03
    34dc:	8a 83       	std	Y+2, r24	; 0x02
    34de:	06 80       	ldd	r0, Z+6	; 0x06
    34e0:	f7 81       	ldd	r31, Z+7	; 0x07
    34e2:	e0 2d       	mov	r30, r0
    34e4:	ce 01       	movw	r24, r28
    34e6:	01 96       	adiw	r24, 0x01	; 1
    34e8:	09 95       	icall
    34ea:	23 96       	adiw	r28, 0x03	; 3
    34ec:	e2 e0       	ldi	r30, 0x02	; 2
    34ee:	0c 94 de 24 	jmp	0x49bc	;  0x49bc
    34f2:	a3 e0       	ldi	r26, 0x03	; 3
    34f4:	b0 e0       	ldi	r27, 0x00	; 0
    34f6:	ef e7       	ldi	r30, 0x7F	; 127
    34f8:	fa e1       	ldi	r31, 0x1A	; 26
    34fa:	0c 94 c2 24 	jmp	0x4984	;  0x4984
    34fe:	20 91 6a 02 	lds	r18, 0x026A	;  0x80026a
    3502:	30 91 6b 02 	lds	r19, 0x026B	;  0x80026b
    3506:	28 17       	cp	r18, r24
    3508:	39 07       	cpc	r19, r25
    350a:	a1 f0       	breq	.+40     	;  0x3534
    350c:	90 93 6b 02 	sts	0x026B, r25	;  0x80026b
    3510:	80 93 6a 02 	sts	0x026A, r24	;  0x80026a
    3514:	e0 91 6e 02 	lds	r30, 0x026E	;  0x80026e
    3518:	f0 91 6f 02 	lds	r31, 0x026F	;  0x80026f
    351c:	30 97       	sbiw	r30, 0x00	; 0
    351e:	51 f0       	breq	.+20     	;  0x3534
    3520:	24 e0       	ldi	r18, 0x04	; 4
    3522:	29 83       	std	Y+1, r18	; 0x01
    3524:	9b 83       	std	Y+3, r25	; 0x03
    3526:	8a 83       	std	Y+2, r24	; 0x02
    3528:	06 80       	ldd	r0, Z+6	; 0x06
    352a:	f7 81       	ldd	r31, Z+7	; 0x07
    352c:	e0 2d       	mov	r30, r0
    352e:	ce 01       	movw	r24, r28
    3530:	01 96       	adiw	r24, 0x01	; 1
    3532:	09 95       	icall
    3534:	23 96       	adiw	r28, 0x03	; 3
    3536:	e2 e0       	ldi	r30, 0x02	; 2
    3538:	0c 94 de 24 	jmp	0x49bc	;  0x49bc
    353c:	9c 01       	movw	r18, r24
    353e:	2e 5f       	subi	r18, 0xFE	; 254
    3540:	3f 4f       	sbci	r19, 0xFF	; 255
    3542:	ac 01       	movw	r20, r24
    3544:	48 5f       	subi	r20, 0xF8	; 248
    3546:	5f 4f       	sbci	r21, 0xFF	; 255
    3548:	80 e0       	ldi	r24, 0x00	; 0
    354a:	24 17       	cp	r18, r20
    354c:	35 07       	cpc	r19, r21
    354e:	09 f4       	brne	.+2      	;  0x3552
    3550:	08 95       	ret
    3552:	f9 01       	movw	r30, r18
    3554:	91 91       	ld	r25, Z+
    3556:	9f 01       	movw	r18, r30
    3558:	99 23       	and	r25, r25
    355a:	b9 f3       	breq	.-18     	;  0x354a
    355c:	8f 5f       	subi	r24, 0xFF	; 255
    355e:	f5 cf       	rjmp	.-22     	;  0x354a
    3560:	66 23       	and	r22, r22
    3562:	49 f0       	breq	.+18     	;  0x3576
    3564:	fc 01       	movw	r30, r24
    3566:	32 96       	adiw	r30, 0x02	; 2
    3568:	08 96       	adiw	r24, 0x08	; 8
    356a:	21 91       	ld	r18, Z+
    356c:	26 17       	cp	r18, r22
    356e:	29 f0       	breq	.+10     	;  0x357a
    3570:	e8 17       	cp	r30, r24
    3572:	f9 07       	cpc	r31, r25
    3574:	d1 f7       	brne	.-12     	;  0x356a
    3576:	80 e0       	ldi	r24, 0x00	; 0
    3578:	08 95       	ret
    357a:	81 e0       	ldi	r24, 0x01	; 1
    357c:	08 95       	ret
    357e:	9c 01       	movw	r18, r24
    3580:	fc 01       	movw	r30, r24
    3582:	32 96       	adiw	r30, 0x02	; 2
    3584:	9f ef       	ldi	r25, 0xFF	; 255
    3586:	80 e0       	ldi	r24, 0x00	; 0
    3588:	41 91       	ld	r20, Z+
    358a:	46 17       	cp	r20, r22
    358c:	51 f0       	breq	.+20     	;  0x35a2
    358e:	9f 3f       	cpi	r25, 0xFF	; 255
    3590:	19 f4       	brne	.+6      	;  0x3598
    3592:	41 11       	cpse	r20, r1
    3594:	01 c0       	rjmp	.+2      	;  0x3598
    3596:	98 2f       	mov	r25, r24
    3598:	8f 5f       	subi	r24, 0xFF	; 255
    359a:	86 30       	cpi	r24, 0x06	; 6
    359c:	a9 f7       	brne	.-22     	;  0x3588
    359e:	9f 3f       	cpi	r25, 0xFF	; 255
    35a0:	09 f4       	brne	.+2      	;  0x35a4
    35a2:	08 95       	ret
    35a4:	29 0f       	add	r18, r25
    35a6:	31 1d       	adc	r19, r1
    35a8:	97 fd       	sbrc	r25, 7
    35aa:	3a 95       	dec	r19
    35ac:	f9 01       	movw	r30, r18
    35ae:	62 83       	std	Z+2, r22	; 0x02
    35b0:	08 95       	ret
    35b2:	fc 01       	movw	r30, r24
    35b4:	32 96       	adiw	r30, 0x02	; 2
    35b6:	08 96       	adiw	r24, 0x08	; 8
    35b8:	21 91       	ld	r18, Z+
    35ba:	26 13       	cpse	r18, r22
    35bc:	03 c0       	rjmp	.+6      	;  0x35c4
    35be:	df 01       	movw	r26, r30
    35c0:	11 97       	sbiw	r26, 0x01	; 1
    35c2:	1c 92       	st	X, r1
    35c4:	e8 17       	cp	r30, r24
    35c6:	f9 07       	cpc	r31, r25
    35c8:	b9 f7       	brne	.-18     	;  0x35b8
    35ca:	08 95       	ret
    35cc:	0e 94 bf 1a 	call	0x357e	;  0x357e
    35d0:	08 95       	ret
    35d2:	0e 94 d9 1a 	call	0x35b2	;  0x35b2
    35d6:	08 95       	ret
    35d8:	02 96       	adiw	r24, 0x02	; 2
    35da:	26 e0       	ldi	r18, 0x06	; 6
    35dc:	fc 01       	movw	r30, r24
    35de:	11 92       	st	Z+, r1
    35e0:	2a 95       	dec	r18
    35e2:	e9 f7       	brne	.-6      	;  0x35de
    35e4:	08 95       	ret
    35e6:	dc 01       	movw	r26, r24
    35e8:	fb 01       	movw	r30, r22
    35ea:	11 96       	adiw	r26, 0x01	; 1
    35ec:	9c 91       	ld	r25, X
    35ee:	11 97       	sbiw	r26, 0x01	; 1
    35f0:	81 81       	ldd	r24, Z+1	; 0x01
    35f2:	98 13       	cpse	r25, r24
    35f4:	22 c0       	rjmp	.+68     	;  0x363a
    35f6:	12 96       	adiw	r26, 0x02	; 2
    35f8:	8c 91       	ld	r24, X
    35fa:	12 97       	sbiw	r26, 0x02	; 2
    35fc:	88 23       	and	r24, r24
    35fe:	19 f0       	breq	.+6      	;  0x3606
    3600:	92 81       	ldd	r25, Z+2	; 0x02
    3602:	89 13       	cpse	r24, r25
    3604:	1a c0       	rjmp	.+52     	;  0x363a
    3606:	13 96       	adiw	r26, 0x03	; 3
    3608:	8c 91       	ld	r24, X
    360a:	13 97       	sbiw	r26, 0x03	; 3
    360c:	88 23       	and	r24, r24
    360e:	19 f0       	breq	.+6      	;  0x3616
    3610:	93 81       	ldd	r25, Z+3	; 0x03
    3612:	89 13       	cpse	r24, r25
    3614:	12 c0       	rjmp	.+36     	;  0x363a
    3616:	15 96       	adiw	r26, 0x05	; 5
    3618:	8c 91       	ld	r24, X
    361a:	15 97       	sbiw	r26, 0x05	; 5
    361c:	88 23       	and	r24, r24
    361e:	19 f0       	breq	.+6      	;  0x3626
    3620:	95 81       	ldd	r25, Z+5	; 0x05
    3622:	89 13       	cpse	r24, r25
    3624:	0a c0       	rjmp	.+20     	;  0x363a
    3626:	14 96       	adiw	r26, 0x04	; 4
    3628:	9c 91       	ld	r25, X
    362a:	99 23       	and	r25, r25
    362c:	21 f0       	breq	.+8      	;  0x3636
    362e:	81 e0       	ldi	r24, 0x01	; 1
    3630:	24 81       	ldd	r18, Z+4	; 0x04
    3632:	29 13       	cpse	r18, r25
    3634:	03 c0       	rjmp	.+6      	;  0x363c
    3636:	80 e0       	ldi	r24, 0x00	; 0
    3638:	01 c0       	rjmp	.+2      	;  0x363c
    363a:	81 e0       	ldi	r24, 0x01	; 1
    363c:	81 70       	andi	r24, 0x01	; 1
    363e:	08 95       	ret
    3640:	08 95       	ret
    3642:	0e 94 20 1b 	call	0x3640	;  0x3640
    3646:	08 95       	ret
    3648:	81 11       	cpse	r24, r1
    364a:	06 c0       	rjmp	.+12     	;  0x3658
    364c:	81 e0       	ldi	r24, 0x01	; 1
    364e:	80 93 70 02 	sts	0x0270, r24	;  0x800270
    3652:	0e 94 21 1b 	call	0x3642	;  0x3642
    3656:	08 95       	ret
    3658:	82 e0       	ldi	r24, 0x02	; 2
    365a:	f9 cf       	rjmp	.-14     	;  0x364e
    365c:	83 e0       	ldi	r24, 0x03	; 3
    365e:	80 93 70 02 	sts	0x0270, r24	;  0x800270
    3662:	0e 94 21 1b 	call	0x3642	;  0x3642
    3666:	08 95       	ret
    3668:	0e 94 24 1b 	call	0x3648	;  0x3648
    366c:	08 95       	ret
    366e:	81 e0       	ldi	r24, 0x01	; 1
    3670:	80 93 70 02 	sts	0x0270, r24	;  0x800270
    3674:	0e 94 21 1b 	call	0x3642	;  0x3642
    3678:	08 95       	ret
    367a:	0e 94 37 1b 	call	0x366e	;  0x366e
    367e:	08 95       	ret
    3680:	08 95       	ret
    3682:	08 95       	ret
    3684:	0e 94 41 1b 	call	0x3682	;  0x3682
    3688:	08 95       	ret
    368a:	08 95       	ret
    368c:	08 95       	ret
    368e:	0e 94 40 1b 	call	0x3680	;  0x3680
    3692:	08 95       	ret
    3694:	cf 93       	push	r28
    3696:	0e 94 45 1b 	call	0x368a	;  0x368a
    369a:	0e 94 e9 11 	call	0x23d2	;  0x23d2
    369e:	0e 94 46 1b 	call	0x368c	;  0x368c
    36a2:	c0 e0       	ldi	r28, 0x00	; 0
    36a4:	8c 2f       	mov	r24, r28
    36a6:	0e 94 bb 10 	call	0x2176	;  0x2176
    36aa:	81 11       	cpse	r24, r1
    36ac:	05 c0       	rjmp	.+10     	;  0x36b8
    36ae:	cf 5f       	subi	r28, 0xFF	; 255
    36b0:	c8 30       	cpi	r28, 0x08	; 8
    36b2:	c1 f7       	brne	.-16     	;  0x36a4
    36b4:	cf 91       	pop	r28
    36b6:	08 95       	ret
    36b8:	81 e0       	ldi	r24, 0x01	; 1
    36ba:	fc cf       	rjmp	.-8      	;  0x36b4
    36bc:	85 b7       	in	r24, 0x35	; 53
    36be:	80 68       	ori	r24, 0x80	; 128
    36c0:	85 bf       	out	0x35, r24	; 53
    36c2:	85 b7       	in	r24, 0x35	; 53
    36c4:	80 68       	ori	r24, 0x80	; 128
    36c6:	85 bf       	out	0x35, r24	; 53
    36c8:	08 95       	ret
    36ca:	1f 92       	push	r1
    36cc:	1f b6       	in	r1, 0x3f	; 63
    36ce:	1f 92       	push	r1
    36d0:	11 24       	eor	r1, r1
    36d2:	8f 93       	push	r24
    36d4:	9f 93       	push	r25
    36d6:	af 93       	push	r26
    36d8:	bf 93       	push	r27
    36da:	80 91 71 02 	lds	r24, 0x0271	;  0x800271
    36de:	81 11       	cpse	r24, r1
    36e0:	13 c0       	rjmp	.+38     	;  0x3708
    36e2:	80 91 94 02 	lds	r24, 0x0294	;  0x800294
    36e6:	90 91 95 02 	lds	r25, 0x0295	;  0x800295
    36ea:	a0 91 96 02 	lds	r26, 0x0296	;  0x800296
    36ee:	b0 91 97 02 	lds	r27, 0x0297	;  0x800297
    36f2:	41 96       	adiw	r24, 0x11	; 17
    36f4:	a1 1d       	adc	r26, r1
    36f6:	b1 1d       	adc	r27, r1
    36f8:	80 93 94 02 	sts	0x0294, r24	;  0x800294
    36fc:	90 93 95 02 	sts	0x0295, r25	;  0x800295
    3700:	a0 93 96 02 	sts	0x0296, r26	;  0x800296
    3704:	b0 93 97 02 	sts	0x0297, r27	;  0x800297
    3708:	bf 91       	pop	r27
    370a:	af 91       	pop	r26
    370c:	9f 91       	pop	r25
    370e:	8f 91       	pop	r24
    3710:	1f 90       	pop	r1
    3712:	1f be       	out	0x3f, r1	; 63
    3714:	1f 90       	pop	r1
    3716:	18 95       	reti
    3718:	80 91 9c 02 	lds	r24, 0x029C	;  0x80029c
    371c:	84 30       	cpi	r24, 0x04	; 4
    371e:	31 f1       	breq	.+76     	;  0x376c
    3720:	0e 94 fd 02 	call	0x5fa	;  0x5fa
    3724:	10 92 71 02 	sts	0x0271, r1	;  0x800271
    3728:	88 e1       	ldi	r24, 0x18	; 24
    372a:	90 e0       	ldi	r25, 0x00	; 0
    372c:	20 e4       	ldi	r18, 0x40	; 64
    372e:	0f b6       	in	r0, 0x3f	; 63
    3730:	f8 94       	cli
    3732:	a8 95       	wdr
    3734:	80 93 60 00 	sts	0x0060, r24	;  0x800060
    3738:	0f be       	out	0x3f, r0	; 63
    373a:	20 93 60 00 	sts	0x0060, r18	;  0x800060
    373e:	83 b7       	in	r24, 0x33	; 51
    3740:	81 7f       	andi	r24, 0xF1	; 241
    3742:	84 60       	ori	r24, 0x04	; 4
    3744:	83 bf       	out	0x33, r24	; 51
    3746:	83 b7       	in	r24, 0x33	; 51
    3748:	81 60       	ori	r24, 0x01	; 1
    374a:	83 bf       	out	0x33, r24	; 51
    374c:	78 94       	sei
    374e:	88 95       	sleep
    3750:	83 b7       	in	r24, 0x33	; 51
    3752:	8e 7f       	andi	r24, 0xFE	; 254
    3754:	83 bf       	out	0x33, r24	; 51
    3756:	0f b6       	in	r0, 0x3f	; 63
    3758:	f8 94       	cli
    375a:	a8 95       	wdr
    375c:	80 91 60 00 	lds	r24, 0x0060	;  0x800060
    3760:	88 61       	ori	r24, 0x18	; 24
    3762:	80 93 60 00 	sts	0x0060, r24	;  0x800060
    3766:	10 92 60 00 	sts	0x0060, r1	;  0x800060
    376a:	0f be       	out	0x3f, r0	; 63
    376c:	08 95       	ret
    376e:	0e 94 ef 06 	call	0xdde	;  0xdde
    3772:	0e 94 02 03 	call	0x604	;  0x604
    3776:	08 95       	ret
    3778:	82 e0       	ldi	r24, 0x02	; 2
    377a:	84 bd       	out	0x24, r24	; 36
    377c:	93 e0       	ldi	r25, 0x03	; 3
    377e:	95 bd       	out	0x25, r25	; 37
    3780:	9a ef       	ldi	r25, 0xFA	; 250
    3782:	97 bd       	out	0x27, r25	; 39
    3784:	80 93 6e 00 	sts	0x006E, r24	;  0x80006e
    3788:	08 95       	ret
    378a:	2f b7       	in	r18, 0x3f	; 63
    378c:	f8 94       	cli
    378e:	80 91 94 02 	lds	r24, 0x0294	;  0x800294
    3792:	90 91 95 02 	lds	r25, 0x0295	;  0x800295
    3796:	a0 91 96 02 	lds	r26, 0x0296	;  0x800296
    379a:	b0 91 97 02 	lds	r27, 0x0297	;  0x800297
    379e:	2f bf       	out	0x3f, r18	; 63
    37a0:	08 95       	ret
    37a2:	2f b7       	in	r18, 0x3f	; 63
    37a4:	f8 94       	cli
    37a6:	60 91 94 02 	lds	r22, 0x0294	;  0x800294
    37aa:	70 91 95 02 	lds	r23, 0x0295	;  0x800295
    37ae:	80 91 96 02 	lds	r24, 0x0296	;  0x800296
    37b2:	90 91 97 02 	lds	r25, 0x0297	;  0x800297
    37b6:	2f bf       	out	0x3f, r18	; 63
    37b8:	08 95       	ret
    37ba:	9c 01       	movw	r18, r24
    37bc:	4f b7       	in	r20, 0x3f	; 63
    37be:	f8 94       	cli
    37c0:	80 91 94 02 	lds	r24, 0x0294	;  0x800294
    37c4:	90 91 95 02 	lds	r25, 0x0295	;  0x800295
    37c8:	a0 91 96 02 	lds	r26, 0x0296	;  0x800296
    37cc:	b0 91 97 02 	lds	r27, 0x0297	;  0x800297
    37d0:	4f bf       	out	0x3f, r20	; 63
    37d2:	82 1b       	sub	r24, r18
    37d4:	93 0b       	sbc	r25, r19
    37d6:	08 95       	ret
    37d8:	cf 92       	push	r12
    37da:	df 92       	push	r13
    37dc:	ef 92       	push	r14
    37de:	ff 92       	push	r15
    37e0:	2f b7       	in	r18, 0x3f	; 63
    37e2:	f8 94       	cli
    37e4:	c0 90 94 02 	lds	r12, 0x0294	;  0x800294
    37e8:	d0 90 95 02 	lds	r13, 0x0295	;  0x800295
    37ec:	e0 90 96 02 	lds	r14, 0x0296	;  0x800296
    37f0:	f0 90 97 02 	lds	r15, 0x0297	;  0x800297
    37f4:	2f bf       	out	0x3f, r18	; 63
    37f6:	a7 01       	movw	r20, r14
    37f8:	96 01       	movw	r18, r12
    37fa:	26 1b       	sub	r18, r22
    37fc:	37 0b       	sbc	r19, r23
    37fe:	48 0b       	sbc	r20, r24
    3800:	59 0b       	sbc	r21, r25
    3802:	ca 01       	movw	r24, r20
    3804:	b9 01       	movw	r22, r18
    3806:	ff 90       	pop	r15
    3808:	ef 90       	pop	r14
    380a:	df 90       	pop	r13
    380c:	cf 90       	pop	r12
    380e:	08 95       	ret
    3810:	78 94       	sei
    3812:	1f 92       	push	r1
    3814:	1f b6       	in	r1, 0x3f	; 63
    3816:	1f 92       	push	r1
    3818:	11 24       	eor	r1, r1
    381a:	8f 93       	push	r24
    381c:	9f 93       	push	r25
    381e:	af 93       	push	r26
    3820:	bf 93       	push	r27
    3822:	80 91 94 02 	lds	r24, 0x0294	;  0x800294
    3826:	90 91 95 02 	lds	r25, 0x0295	;  0x800295
    382a:	a0 91 96 02 	lds	r26, 0x0296	;  0x800296
    382e:	b0 91 97 02 	lds	r27, 0x0297	;  0x800297
    3832:	01 96       	adiw	r24, 0x01	; 1
    3834:	a1 1d       	adc	r26, r1
    3836:	b1 1d       	adc	r27, r1
    3838:	80 93 94 02 	sts	0x0294, r24	;  0x800294
    383c:	90 93 95 02 	sts	0x0295, r25	;  0x800295
    3840:	a0 93 96 02 	sts	0x0296, r26	;  0x800296
    3844:	b0 93 97 02 	sts	0x0297, r27	;  0x800297
    3848:	bf 91       	pop	r27
    384a:	af 91       	pop	r26
    384c:	9f 91       	pop	r25
    384e:	8f 91       	pop	r24
    3850:	1f 90       	pop	r1
    3852:	1f be       	out	0x3f, r1	; 63
    3854:	1f 90       	pop	r1
    3856:	18 95       	reti
    3858:	87 e7       	ldi	r24, 0x77	; 119
    385a:	97 e7       	ldi	r25, 0x77	; 119
    385c:	90 93 01 08 	sts	0x0801, r25	;  0x800801
    3860:	80 93 00 08 	sts	0x0800, r24	;  0x800800
    3864:	88 e1       	ldi	r24, 0x18	; 24
    3866:	9a e0       	ldi	r25, 0x0A	; 10
    3868:	0f b6       	in	r0, 0x3f	; 63
    386a:	f8 94       	cli
    386c:	a8 95       	wdr
    386e:	80 93 60 00 	sts	0x0060, r24	;  0x800060
    3872:	0f be       	out	0x3f, r0	; 63
    3874:	90 93 60 00 	sts	0x0060, r25	;  0x800060
    3878:	ff cf       	rjmp	.-2      	;  0x3878
    387a:	88 e1       	ldi	r24, 0x18	; 24
    387c:	9a e0       	ldi	r25, 0x0A	; 10
    387e:	0f b6       	in	r0, 0x3f	; 63
    3880:	f8 94       	cli
    3882:	a8 95       	wdr
    3884:	80 93 60 00 	sts	0x0060, r24	;  0x800060
    3888:	0f be       	out	0x3f, r0	; 63
    388a:	90 93 60 00 	sts	0x0060, r25	;  0x800060
    388e:	ff cf       	rjmp	.-2      	;  0x388e
    3890:	8e e1       	ldi	r24, 0x1E	; 30
    3892:	48 9b       	sbis	0x09, 0	; 9
    3894:	02 c0       	rjmp	.+4      	;  0x389a
    3896:	81 50       	subi	r24, 0x01	; 1
    3898:	e1 f7       	brne	.-8      	;  0x3892
    389a:	48 9b       	sbis	0x09, 0	; 9
    389c:	fe cf       	rjmp	.-4      	;  0x389a
    389e:	08 95       	ret
    38a0:	58 98       	cbi	0x0b, 0	; 11
    38a2:	80 e2       	ldi	r24, 0x20	; 32
    38a4:	8a 95       	dec	r24
    38a6:	f1 f7       	brne	.-4      	;  0x38a4
    38a8:	58 9a       	sbi	0x0b, 0	; 11
    38aa:	08 95       	ret
    38ac:	fc 01       	movw	r30, r24
    38ae:	3b e0       	ldi	r19, 0x0B	; 11
    38b0:	3a 95       	dec	r19
    38b2:	f1 f7       	brne	.-4      	;  0x38b0
    38b4:	98 e0       	ldi	r25, 0x08	; 8
    38b6:	20 e0       	ldi	r18, 0x00	; 0
    38b8:	80 e0       	ldi	r24, 0x00	; 0
    38ba:	31 e0       	ldi	r19, 0x01	; 1
    38bc:	40 e1       	ldi	r20, 0x10	; 16
    38be:	4a 95       	dec	r20
    38c0:	f1 f7       	brne	.-4      	;  0x38be
    38c2:	88 0f       	add	r24, r24
    38c4:	48 9b       	sbis	0x09, 0	; 9
    38c6:	02 c0       	rjmp	.+4      	;  0x38cc
    38c8:	81 60       	ori	r24, 0x01	; 1
    38ca:	23 27       	eor	r18, r19
    38cc:	42 e0       	ldi	r20, 0x02	; 2
    38ce:	4a 95       	dec	r20
    38d0:	f1 f7       	brne	.-4      	;  0x38ce
    38d2:	00 00       	nop
    38d4:	40 e1       	ldi	r20, 0x10	; 16
    38d6:	4a 95       	dec	r20
    38d8:	f1 f7       	brne	.-4      	;  0x38d6
    38da:	91 50       	subi	r25, 0x01	; 1
    38dc:	79 f7       	brne	.-34     	;  0x38bc
    38de:	90 e1       	ldi	r25, 0x10	; 16
    38e0:	9a 95       	dec	r25
    38e2:	f1 f7       	brne	.-4      	;  0x38e0
    38e4:	99 b1       	in	r25, 0x09	; 9
    38e6:	32 e0       	ldi	r19, 0x02	; 2
    38e8:	3a 95       	dec	r19
    38ea:	f1 f7       	brne	.-4      	;  0x38e8
    38ec:	00 00       	nop
    38ee:	40 e1       	ldi	r20, 0x10	; 16
    38f0:	4a 95       	dec	r20
    38f2:	f1 f7       	brne	.-4      	;  0x38f0
    38f4:	91 70       	andi	r25, 0x01	; 1
    38f6:	92 27       	eor	r25, r18
    38f8:	20 81       	ld	r18, Z
    38fa:	92 0f       	add	r25, r18
    38fc:	90 83       	st	Z, r25
    38fe:	08 95       	ret
    3900:	a1 e0       	ldi	r26, 0x01	; 1
    3902:	b0 e0       	ldi	r27, 0x00	; 0
    3904:	e6 e8       	ldi	r30, 0x86	; 134
    3906:	fc e1       	ldi	r31, 0x1C	; 28
    3908:	0c 94 be 24 	jmp	0x497c	;  0x497c
    390c:	19 82       	std	Y+1, r1	; 0x01
    390e:	8c 01       	movw	r16, r24
    3910:	7c 01       	movw	r14, r24
    3912:	e6 0e       	add	r14, r22
    3914:	f1 1c       	adc	r15, r1
    3916:	0e 15       	cp	r16, r14
    3918:	1f 05       	cpc	r17, r15
    391a:	41 f4       	brne	.+16     	;  0x392c
    391c:	81 e0       	ldi	r24, 0x01	; 1
    391e:	99 81       	ldd	r25, Y+1	; 0x01
    3920:	91 11       	cpse	r25, r1
    3922:	80 e0       	ldi	r24, 0x00	; 0
    3924:	21 96       	adiw	r28, 0x01	; 1
    3926:	e6 e0       	ldi	r30, 0x06	; 6
    3928:	0c 94 da 24 	jmp	0x49b4	;  0x49b4
    392c:	0e 94 48 1c 	call	0x3890	;  0x3890
    3930:	ce 01       	movw	r24, r28
    3932:	01 96       	adiw	r24, 0x01	; 1
    3934:	0e 94 56 1c 	call	0x38ac	;  0x38ac
    3938:	f8 01       	movw	r30, r16
    393a:	81 93       	st	Z+, r24
    393c:	8f 01       	movw	r16, r30
    393e:	eb cf       	rjmp	.-42     	;  0x3916
    3940:	50 9a       	sbi	0x0a, 0	; 10
    3942:	58 9a       	sbi	0x0b, 0	; 11
    3944:	08 95       	ret
    3946:	50 98       	cbi	0x0a, 0	; 10
    3948:	58 9a       	sbi	0x0b, 0	; 11
    394a:	e8 9a       	sbi	0x1d, 0	; 29
    394c:	e9 e6       	ldi	r30, 0x69	; 105
    394e:	f0 e0       	ldi	r31, 0x00	; 0
    3950:	80 81       	ld	r24, Z
    3952:	8c 7f       	andi	r24, 0xFC	; 252
    3954:	80 83       	st	Z, r24
    3956:	08 95       	ret
    3958:	61 50       	subi	r22, 0x01	; 1
    395a:	77 0b       	sbc	r23, r23
    395c:	91 e0       	ldi	r25, 0x01	; 1
    395e:	01 c0       	rjmp	.+2      	;  0x3962
    3960:	99 0f       	add	r25, r25
    3962:	6a 95       	dec	r22
    3964:	ea f7       	brpl	.-6      	;  0x3960
    3966:	20 e0       	ldi	r18, 0x00	; 0
    3968:	31 e0       	ldi	r19, 0x01	; 1
    396a:	91 11       	cpse	r25, r1
    396c:	08 c0       	rjmp	.+16     	;  0x397e
    396e:	22 23       	and	r18, r18
    3970:	91 f0       	breq	.+36     	;  0x3996
    3972:	58 9a       	sbi	0x0b, 0	; 11
    3974:	80 e2       	ldi	r24, 0x20	; 32
    3976:	8a 95       	dec	r24
    3978:	f1 f7       	brne	.-4      	;  0x3976
    397a:	58 98       	cbi	0x0b, 0	; 11
    397c:	08 95       	ret
    397e:	49 2f       	mov	r20, r25
    3980:	48 23       	and	r20, r24
    3982:	39 f0       	breq	.+14     	;  0x3992
    3984:	58 9a       	sbi	0x0b, 0	; 11
    3986:	23 27       	eor	r18, r19
    3988:	40 e2       	ldi	r20, 0x20	; 32
    398a:	4a 95       	dec	r20
    398c:	f1 f7       	brne	.-4      	;  0x398a
    398e:	96 95       	lsr	r25
    3990:	ec cf       	rjmp	.-40     	;  0x396a
    3992:	58 98       	cbi	0x0b, 0	; 11
    3994:	f9 cf       	rjmp	.-14     	;  0x3988
    3996:	58 98       	cbi	0x0b, 0	; 11
    3998:	ed cf       	rjmp	.-38     	;  0x3974
    399a:	ff 92       	push	r15
    399c:	0f 93       	push	r16
    399e:	1f 93       	push	r17
    39a0:	cf 93       	push	r28
    39a2:	df 93       	push	r29
    39a4:	ec 01       	movw	r28, r24
    39a6:	8c 01       	movw	r16, r24
    39a8:	06 0f       	add	r16, r22
    39aa:	11 1d       	adc	r17, r1
    39ac:	c0 17       	cp	r28, r16
    39ae:	d1 07       	cpc	r29, r17
    39b0:	29 f4       	brne	.+10     	;  0x39bc
    39b2:	cd b7       	in	r28, 0x3d	; 61
    39b4:	de b7       	in	r29, 0x3e	; 62
    39b6:	e5 e0       	ldi	r30, 0x05	; 5
    39b8:	0c 94 db 24 	jmp	0x49b6	;  0x49b6
    39bc:	f9 90       	ld	r15, Y+
    39be:	0e 94 50 1c 	call	0x38a0	;  0x38a0
    39c2:	68 e0       	ldi	r22, 0x08	; 8
    39c4:	8f 2d       	mov	r24, r15
    39c6:	0e 94 ac 1c 	call	0x3958	;  0x3958
    39ca:	f0 cf       	rjmp	.-32     	;  0x39ac
    39cc:	1f 92       	push	r1
    39ce:	0f 92       	push	r0
    39d0:	0f b6       	in	r0, 0x3f	; 63
    39d2:	0f 92       	push	r0
    39d4:	11 24       	eor	r1, r1
    39d6:	0f 93       	push	r16
    39d8:	1f 93       	push	r17
    39da:	2f 93       	push	r18
    39dc:	3f 93       	push	r19
    39de:	4f 93       	push	r20
    39e0:	5f 93       	push	r21
    39e2:	6f 93       	push	r22
    39e4:	7f 93       	push	r23
    39e6:	8f 93       	push	r24
    39e8:	9f 93       	push	r25
    39ea:	af 93       	push	r26
    39ec:	bf 93       	push	r27
    39ee:	ef 93       	push	r30
    39f0:	ff 93       	push	r31
    39f2:	cf 93       	push	r28
    39f4:	df 93       	push	r29
    39f6:	0f 92       	push	r0
    39f8:	cd b7       	in	r28, 0x3d	; 61
    39fa:	de b7       	in	r29, 0x3e	; 62
    39fc:	19 82       	std	Y+1, r1	; 0x01
    39fe:	0e 94 48 1c 	call	0x3890	;  0x3890
    3a02:	ce 01       	movw	r24, r28
    3a04:	01 96       	adiw	r24, 0x01	; 1
    3a06:	0e 94 56 1c 	call	0x38ac	;  0x38ac
    3a0a:	08 2f       	mov	r16, r24
    3a0c:	06 95       	lsr	r16
    3a0e:	06 95       	lsr	r16
    3a10:	06 95       	lsr	r16
    3a12:	28 2f       	mov	r18, r24
    3a14:	22 95       	swap	r18
    3a16:	25 70       	andi	r18, 0x05	; 5
    3a18:	90 2f       	mov	r25, r16
    3a1a:	95 70       	andi	r25, 0x05	; 5
    3a1c:	29 0f       	add	r18, r25
    3a1e:	92 2f       	mov	r25, r18
    3a20:	93 70       	andi	r25, 0x03	; 3
    3a22:	26 95       	lsr	r18
    3a24:	26 95       	lsr	r18
    3a26:	92 0f       	add	r25, r18
    3a28:	98 27       	eor	r25, r24
    3a2a:	97 70       	andi	r25, 0x07	; 7
    3a2c:	89 81       	ldd	r24, Y+1	; 0x01
    3a2e:	98 2b       	or	r25, r24
    3a30:	09 f0       	breq	.+2      	;  0x3a34
    3a32:	5c c0       	rjmp	.+184    	;  0x3aec
    3a34:	04 30       	cpi	r16, 0x04	; 4
    3a36:	08 f0       	brcs	.+2      	;  0x3a3a
    3a38:	59 c0       	rjmp	.+178    	;  0x3aec
    3a3a:	80 e1       	ldi	r24, 0x10	; 16
    3a3c:	8a 95       	dec	r24
    3a3e:	f1 f7       	brne	.-4      	;  0x3a3c
    3a40:	58 9a       	sbi	0x0b, 0	; 11
    3a42:	50 9a       	sbi	0x0a, 0	; 10
    3a44:	82 e0       	ldi	r24, 0x02	; 2
    3a46:	8a 95       	dec	r24
    3a48:	f1 f7       	brne	.-4      	;  0x3a46
    3a4a:	00 c0       	rjmp	.+0      	;  0x3a4c
    3a4c:	58 98       	cbi	0x0b, 0	; 11
    3a4e:	88 e0       	ldi	r24, 0x08	; 8
    3a50:	08 9f       	mul	r16, r24
    3a52:	80 01       	movw	r16, r0
    3a54:	11 24       	eor	r1, r1
    3a56:	d8 01       	movw	r26, r16
    3a58:	ad 5f       	subi	r26, 0xFD	; 253
    3a5a:	be 4f       	sbci	r27, 0xFE	; 254
    3a5c:	16 96       	adiw	r26, 0x06	; 6
    3a5e:	ed 91       	ld	r30, X+
    3a60:	fc 91       	ld	r31, X
    3a62:	17 97       	sbiw	r26, 0x07	; 7
    3a64:	30 97       	sbiw	r30, 0x00	; 0
    3a66:	a9 f0       	breq	.+42     	;  0x3a92
    3a68:	60 91 a7 01 	lds	r22, 0x01A7	;  0x8001a7
    3a6c:	70 91 a8 01 	lds	r23, 0x01A8	;  0x8001a8
    3a70:	14 96       	adiw	r26, 0x04	; 4
    3a72:	2d 91       	ld	r18, X+
    3a74:	3c 91       	ld	r19, X
    3a76:	15 97       	sbiw	r26, 0x05	; 5
    3a78:	26 0f       	add	r18, r22
    3a7a:	37 1f       	adc	r19, r23
    3a7c:	11 96       	adiw	r26, 0x01	; 1
    3a7e:	8d 91       	ld	r24, X+
    3a80:	9c 91       	ld	r25, X
    3a82:	12 97       	sbiw	r26, 0x02	; 2
    3a84:	68 0f       	add	r22, r24
    3a86:	79 1f       	adc	r23, r25
    3a88:	13 96       	adiw	r26, 0x03	; 3
    3a8a:	4c 91       	ld	r20, X
    3a8c:	13 97       	sbiw	r26, 0x03	; 3
    3a8e:	8c 91       	ld	r24, X
    3a90:	09 95       	icall
    3a92:	f8 01       	movw	r30, r16
    3a94:	ed 5f       	subi	r30, 0xFD	; 253
    3a96:	fe 4f       	sbci	r31, 0xFE	; 254
    3a98:	63 81       	ldd	r22, Z+3	; 0x03
    3a9a:	66 23       	and	r22, r22
    3a9c:	51 f0       	breq	.+20     	;  0x3ab2
    3a9e:	20 91 a7 01 	lds	r18, 0x01A7	;  0x8001a7
    3aa2:	30 91 a8 01 	lds	r19, 0x01A8	;  0x8001a8
    3aa6:	84 81       	ldd	r24, Z+4	; 0x04
    3aa8:	95 81       	ldd	r25, Z+5	; 0x05
    3aaa:	82 0f       	add	r24, r18
    3aac:	93 1f       	adc	r25, r19
    3aae:	0e 94 cd 1c 	call	0x399a	;  0x399a
    3ab2:	0e 94 50 1c 	call	0x38a0	;  0x38a0
    3ab6:	80 e1       	ldi	r24, 0x10	; 16
    3ab8:	8a 95       	dec	r24
    3aba:	f1 f7       	brne	.-4      	;  0x3ab8
    3abc:	58 98       	cbi	0x0b, 0	; 11
    3abe:	50 98       	cbi	0x0a, 0	; 10
    3ac0:	58 9a       	sbi	0x0b, 0	; 11
    3ac2:	80 e1       	ldi	r24, 0x10	; 16
    3ac4:	8a 95       	dec	r24
    3ac6:	f1 f7       	brne	.-4      	;  0x3ac4
    3ac8:	f8 01       	movw	r30, r16
    3aca:	ed 5f       	subi	r30, 0xFD	; 253
    3acc:	fe 4f       	sbci	r31, 0xFE	; 254
    3ace:	60 81       	ld	r22, Z
    3ad0:	66 23       	and	r22, r22
    3ad2:	51 f0       	breq	.+20     	;  0x3ae8
    3ad4:	20 91 a7 01 	lds	r18, 0x01A7	;  0x8001a7
    3ad8:	30 91 a8 01 	lds	r19, 0x01A8	;  0x8001a8
    3adc:	81 81       	ldd	r24, Z+1	; 0x01
    3ade:	92 81       	ldd	r25, Z+2	; 0x02
    3ae0:	82 0f       	add	r24, r18
    3ae2:	93 1f       	adc	r25, r19
    3ae4:	0e 94 80 1c 	call	0x3900	;  0x3900
    3ae8:	0e 94 48 1c 	call	0x3890	;  0x3890
    3aec:	0f 90       	pop	r0
    3aee:	df 91       	pop	r29
    3af0:	cf 91       	pop	r28
    3af2:	ff 91       	pop	r31
    3af4:	ef 91       	pop	r30
    3af6:	bf 91       	pop	r27
    3af8:	af 91       	pop	r26
    3afa:	9f 91       	pop	r25
    3afc:	8f 91       	pop	r24
    3afe:	7f 91       	pop	r23
    3b00:	6f 91       	pop	r22
    3b02:	5f 91       	pop	r21
    3b04:	4f 91       	pop	r20
    3b06:	3f 91       	pop	r19
    3b08:	2f 91       	pop	r18
    3b0a:	1f 91       	pop	r17
    3b0c:	0f 91       	pop	r16
    3b0e:	0f 90       	pop	r0
    3b10:	0f be       	out	0x3f, r0	; 63
    3b12:	0f 90       	pop	r0
    3b14:	1f 90       	pop	r1
    3b16:	18 95       	reti
    3b18:	0f 93       	push	r16
    3b1a:	1f 93       	push	r17
    3b1c:	cf 93       	push	r28
    3b1e:	df 93       	push	r29
    3b20:	ec 01       	movw	r28, r24
    3b22:	04 97       	sbiw	r24, 0x04	; 4
    3b24:	0c f0       	brlt	.+2      	;  0x3b28
    3b26:	4c c0       	rjmp	.+152    	;  0x3bc0
    3b28:	f8 94       	cli
    3b2a:	50 9a       	sbi	0x0a, 0	; 10
    3b2c:	58 98       	cbi	0x0b, 0	; 11
    3b2e:	85 e0       	ldi	r24, 0x05	; 5
    3b30:	8a 95       	dec	r24
    3b32:	f1 f7       	brne	.-4      	;  0x3b30
    3b34:	00 00       	nop
    3b36:	9c 2f       	mov	r25, r28
    3b38:	96 95       	lsr	r25
    3b3a:	95 70       	andi	r25, 0x05	; 5
    3b3c:	8c 2f       	mov	r24, r28
    3b3e:	85 70       	andi	r24, 0x05	; 5
    3b40:	98 0f       	add	r25, r24
    3b42:	89 2f       	mov	r24, r25
    3b44:	83 70       	andi	r24, 0x03	; 3
    3b46:	96 95       	lsr	r25
    3b48:	96 95       	lsr	r25
    3b4a:	23 e0       	ldi	r18, 0x03	; 3
    3b4c:	cc 0f       	add	r28, r28
    3b4e:	dd 1f       	adc	r29, r29
    3b50:	2a 95       	dec	r18
    3b52:	e1 f7       	brne	.-8      	;  0x3b4c
    3b54:	98 0f       	add	r25, r24
    3b56:	8e 01       	movw	r16, r28
    3b58:	09 2b       	or	r16, r25
    3b5a:	0e 94 50 1c 	call	0x38a0	;  0x38a0
    3b5e:	00 c0       	rjmp	.+0      	;  0x3b60
    3b60:	68 e0       	ldi	r22, 0x08	; 8
    3b62:	80 2f       	mov	r24, r16
    3b64:	0e 94 ac 1c 	call	0x3958	;  0x3958
    3b68:	80 e1       	ldi	r24, 0x10	; 16
    3b6a:	8a 95       	dec	r24
    3b6c:	f1 f7       	brne	.-4      	;  0x3b6a
    3b6e:	50 98       	cbi	0x0a, 0	; 10
    3b70:	58 9a       	sbi	0x0b, 0	; 11
    3b72:	48 9b       	sbis	0x09, 0	; 9
    3b74:	1e c0       	rjmp	.+60     	;  0x3bb2
    3b76:	87 e0       	ldi	r24, 0x07	; 7
    3b78:	90 e0       	ldi	r25, 0x00	; 0
    3b7a:	48 99       	sbic	0x09, 0	; 9
    3b7c:	1c c0       	rjmp	.+56     	;  0x3bb6
    3b7e:	fe 01       	movw	r30, r28
    3b80:	ed 5f       	subi	r30, 0xFD	; 253
    3b82:	fe 4f       	sbci	r31, 0xFE	; 254
    3b84:	63 81       	ldd	r22, Z+3	; 0x03
    3b86:	66 23       	and	r22, r22
    3b88:	f9 f0       	breq	.+62     	;  0x3bc8
    3b8a:	20 91 a7 01 	lds	r18, 0x01A7	;  0x8001a7
    3b8e:	30 91 a8 01 	lds	r19, 0x01A8	;  0x8001a8
    3b92:	84 81       	ldd	r24, Z+4	; 0x04
    3b94:	95 81       	ldd	r25, Z+5	; 0x05
    3b96:	82 0f       	add	r24, r18
    3b98:	93 1f       	adc	r25, r19
    3b9a:	0e 94 80 1c 	call	0x3900	;  0x3900
    3b9e:	81 11       	cpse	r24, r1
    3ba0:	13 c0       	rjmp	.+38     	;  0x3bc8
    3ba2:	50 9a       	sbi	0x0a, 0	; 10
    3ba4:	58 9a       	sbi	0x0b, 0	; 11
    3ba6:	78 94       	sei
    3ba8:	df 91       	pop	r29
    3baa:	cf 91       	pop	r28
    3bac:	1f 91       	pop	r17
    3bae:	0f 91       	pop	r16
    3bb0:	08 95       	ret
    3bb2:	00 c0       	rjmp	.+0      	;  0x3bb4
    3bb4:	de cf       	rjmp	.-68     	;  0x3b72
    3bb6:	01 97       	sbiw	r24, 0x01	; 1
    3bb8:	29 f4       	brne	.+10     	;  0x3bc4
    3bba:	50 9a       	sbi	0x0a, 0	; 10
    3bbc:	58 9a       	sbi	0x0b, 0	; 11
    3bbe:	78 94       	sei
    3bc0:	80 e0       	ldi	r24, 0x00	; 0
    3bc2:	f2 cf       	rjmp	.-28     	;  0x3ba8
    3bc4:	00 c0       	rjmp	.+0      	;  0x3bc6
    3bc6:	d9 cf       	rjmp	.-78     	;  0x3b7a
    3bc8:	0e 94 48 1c 	call	0x3890	;  0x3890
    3bcc:	80 e2       	ldi	r24, 0x20	; 32
    3bce:	8a 95       	dec	r24
    3bd0:	f1 f7       	brne	.-4      	;  0x3bce
    3bd2:	58 98       	cbi	0x0b, 0	; 11
    3bd4:	50 9a       	sbi	0x0a, 0	; 10
    3bd6:	80 e1       	ldi	r24, 0x10	; 16
    3bd8:	8a 95       	dec	r24
    3bda:	f1 f7       	brne	.-4      	;  0x3bd8
    3bdc:	cd 5f       	subi	r28, 0xFD	; 253
    3bde:	de 4f       	sbci	r29, 0xFE	; 254
    3be0:	68 81       	ld	r22, Y
    3be2:	66 23       	and	r22, r22
    3be4:	51 f0       	breq	.+20     	;  0x3bfa
    3be6:	20 91 a7 01 	lds	r18, 0x01A7	;  0x8001a7
    3bea:	30 91 a8 01 	lds	r19, 0x01A8	;  0x8001a8
    3bee:	89 81       	ldd	r24, Y+1	; 0x01
    3bf0:	9a 81       	ldd	r25, Y+2	; 0x02
    3bf2:	82 0f       	add	r24, r18
    3bf4:	93 1f       	adc	r25, r19
    3bf6:	0e 94 cd 1c 	call	0x399a	;  0x399a
    3bfa:	0e 94 50 1c 	call	0x38a0	;  0x38a0
    3bfe:	78 94       	sei
    3c00:	81 e0       	ldi	r24, 0x01	; 1
    3c02:	d2 cf       	rjmp	.-92     	;  0x3ba8
    3c04:	80 91 7a 02 	lds	r24, 0x027A	;  0x80027a
    3c08:	08 95       	ret
    3c0a:	9b 01       	movw	r18, r22
    3c0c:	ba 01       	movw	r22, r20
    3c0e:	90 91 9c 02 	lds	r25, 0x029C	;  0x80029c
    3c12:	94 30       	cpi	r25, 0x04	; 4
    3c14:	e9 f4       	brne	.+58     	;  0x3c50
    3c16:	8f 70       	andi	r24, 0x0F	; 15
    3c18:	80 93 e9 00 	sts	0x00E9, r24	;  0x8000e9
    3c1c:	9f ef       	ldi	r25, 0xFF	; 255
    3c1e:	80 91 e8 00 	lds	r24, 0x00E8	;  0x8000e8
    3c22:	91 50       	subi	r25, 0x01	; 1
    3c24:	85 fd       	sbrc	r24, 5
    3c26:	06 c0       	rjmp	.+12     	;  0x3c34
    3c28:	85 ed       	ldi	r24, 0xD5	; 213
    3c2a:	8a 95       	dec	r24
    3c2c:	f1 f7       	brne	.-4      	;  0x3c2a
    3c2e:	00 00       	nop
    3c30:	91 11       	cpse	r25, r1
    3c32:	f5 cf       	rjmp	.-22     	;  0x3c1e
    3c34:	80 91 e8 00 	lds	r24, 0x00E8	;  0x8000e8
    3c38:	85 ff       	sbrs	r24, 5
    3c3a:	0a c0       	rjmp	.+20     	;  0x3c50
    3c3c:	50 e0       	ldi	r21, 0x00	; 0
    3c3e:	40 e0       	ldi	r20, 0x00	; 0
    3c40:	c9 01       	movw	r24, r18
    3c42:	0e 94 ff 1f 	call	0x3ffe	;  0x3ffe
    3c46:	80 91 e8 00 	lds	r24, 0x00E8	;  0x8000e8
    3c4a:	8e 77       	andi	r24, 0x7E	; 126
    3c4c:	80 93 e8 00 	sts	0x00E8, r24	;  0x8000e8
    3c50:	08 95       	ret
    3c52:	43 e0       	ldi	r20, 0x03	; 3
    3c54:	50 e0       	ldi	r21, 0x00	; 0
    3c56:	bc 01       	movw	r22, r24
    3c58:	82 e0       	ldi	r24, 0x02	; 2
    3c5a:	0e 94 05 1e 	call	0x3c0a	;  0x3c0a
    3c5e:	08 95       	ret
    3c60:	46 e0       	ldi	r20, 0x06	; 6
    3c62:	50 e0       	ldi	r21, 0x00	; 0
    3c64:	bc 01       	movw	r22, r24
    3c66:	82 e0       	ldi	r24, 0x02	; 2
    3c68:	0e 94 05 1e 	call	0x3c0a	;  0x3c0a
    3c6c:	08 95       	ret
    3c6e:	cf 93       	push	r28
    3c70:	df 93       	push	r29
    3c72:	ec 01       	movw	r28, r24
    3c74:	48 e0       	ldi	r20, 0x08	; 8
    3c76:	50 e0       	ldi	r21, 0x00	; 0
    3c78:	bc 01       	movw	r22, r24
    3c7a:	81 e0       	ldi	r24, 0x01	; 1
    3c7c:	0e 94 05 1e 	call	0x3c0a	;  0x3c0a
    3c80:	88 e0       	ldi	r24, 0x08	; 8
    3c82:	fe 01       	movw	r30, r28
    3c84:	a2 e7       	ldi	r26, 0x72	; 114
    3c86:	b2 e0       	ldi	r27, 0x02	; 2
    3c88:	01 90       	ld	r0, Z+
    3c8a:	0d 92       	st	X+, r0
    3c8c:	8a 95       	dec	r24
    3c8e:	e1 f7       	brne	.-8      	;  0x3c88
    3c90:	df 91       	pop	r29
    3c92:	cf 91       	pop	r28
    3c94:	08 95       	ret
    3c96:	80 91 9b 02 	lds	r24, 0x029B	;  0x80029b
    3c9a:	81 11       	cpse	r24, r1
    3c9c:	09 c0       	rjmp	.+18     	;  0x3cb0
    3c9e:	0e 94 8f 21 	call	0x431e	;  0x431e
    3ca2:	0e 94 ec 21 	call	0x43d8	;  0x43d8
    3ca6:	80 91 e2 00 	lds	r24, 0x00E2	;  0x8000e2
    3caa:	84 60       	ori	r24, 0x04	; 4
    3cac:	80 93 e2 00 	sts	0x00E2, r24	;  0x8000e2
    3cb0:	08 95       	ret
    3cb2:	10 92 9b 02 	sts	0x029B, r1	;  0x80029b
    3cb6:	08 95       	ret
    3cb8:	0e 94 37 1b 	call	0x366e	;  0x366e
    3cbc:	08 95       	ret
    3cbe:	60 91 98 02 	lds	r22, 0x0298	;  0x800298
    3cc2:	81 e0       	ldi	r24, 0x01	; 1
    3cc4:	61 11       	cpse	r22, r1
    3cc6:	01 c0       	rjmp	.+2      	;  0x3cca
    3cc8:	80 e0       	ldi	r24, 0x00	; 0
    3cca:	0e 94 2e 1b 	call	0x365c	;  0x365c
    3cce:	08 95       	ret
    3cd0:	90 91 9c 02 	lds	r25, 0x029C	;  0x80029c
    3cd4:	81 e0       	ldi	r24, 0x01	; 1
    3cd6:	94 30       	cpi	r25, 0x04	; 4
    3cd8:	09 f0       	breq	.+2      	;  0x3cdc
    3cda:	80 e0       	ldi	r24, 0x00	; 0
    3cdc:	60 91 98 02 	lds	r22, 0x0298	;  0x800298
    3ce0:	0e 94 34 1b 	call	0x3668	;  0x3668
    3ce4:	08 95       	ret
    3ce6:	42 e0       	ldi	r20, 0x02	; 2
    3ce8:	61 ec       	ldi	r22, 0xC1	; 193
    3cea:	81 e0       	ldi	r24, 0x01	; 1
    3cec:	0e 94 0b 21 	call	0x4216	;  0x4216
    3cf0:	42 e2       	ldi	r20, 0x22	; 34
    3cf2:	61 ec       	ldi	r22, 0xC1	; 193
    3cf4:	82 e0       	ldi	r24, 0x02	; 2
    3cf6:	0e 94 0b 21 	call	0x4216	;  0x4216
    3cfa:	90 91 9c 02 	lds	r25, 0x029C	;  0x80029c
    3cfe:	81 e0       	ldi	r24, 0x01	; 1
    3d00:	94 30       	cpi	r25, 0x04	; 4
    3d02:	09 f0       	breq	.+2      	;  0x3d06
    3d04:	80 e0       	ldi	r24, 0x00	; 0
    3d06:	60 91 98 02 	lds	r22, 0x0298	;  0x800298
    3d0a:	0e 94 24 1b 	call	0x3648	;  0x3648
    3d0e:	08 95       	ret
    3d10:	80 91 9e 02 	lds	r24, 0x029E	;  0x80029e
    3d14:	83 30       	cpi	r24, 0x03	; 3
    3d16:	09 f4       	brne	.+2      	;  0x3d1a
    3d18:	61 c0       	rjmp	.+194    	;  0x3ddc
    3d1a:	30 f4       	brcc	.+12     	;  0x3d28
    3d1c:	81 30       	cpi	r24, 0x01	; 1
    3d1e:	d1 f1       	breq	.+116    	;  0x3d94
    3d20:	82 30       	cpi	r24, 0x02	; 2
    3d22:	09 f4       	brne	.+2      	;  0x3d26
    3d24:	9e c0       	rjmp	.+316    	;  0x3e62
    3d26:	08 95       	ret
    3d28:	8a 30       	cpi	r24, 0x0A	; 10
    3d2a:	09 f4       	brne	.+2      	;  0x3d2e
    3d2c:	8a c0       	rjmp	.+276    	;  0x3e42
    3d2e:	8b 30       	cpi	r24, 0x0B	; 11
    3d30:	09 f4       	brne	.+2      	;  0x3d34
    3d32:	6f c0       	rjmp	.+222    	;  0x3e12
    3d34:	89 30       	cpi	r24, 0x09	; 9
    3d36:	09 f0       	breq	.+2      	;  0x3d3a
    3d38:	50 c0       	rjmp	.+160    	;  0x3dda
    3d3a:	80 91 9d 02 	lds	r24, 0x029D	;  0x80029d
    3d3e:	81 32       	cpi	r24, 0x21	; 33
    3d40:	09 f0       	breq	.+2      	;  0x3d44
    3d42:	4b c0       	rjmp	.+150    	;  0x3dda
    3d44:	80 91 a1 02 	lds	r24, 0x02A1	;  0x8002a1
    3d48:	90 91 a2 02 	lds	r25, 0x02A2	;  0x8002a2
    3d4c:	02 97       	sbiw	r24, 0x02	; 2
    3d4e:	08 f0       	brcs	.+2      	;  0x3d52
    3d50:	44 c0       	rjmp	.+136    	;  0x3dda
    3d52:	80 91 e8 00 	lds	r24, 0x00E8	;  0x8000e8
    3d56:	87 7f       	andi	r24, 0xF7	; 247
    3d58:	80 93 e8 00 	sts	0x00E8, r24	;  0x8000e8
    3d5c:	80 91 e8 00 	lds	r24, 0x00E8	;  0x8000e8
    3d60:	82 ff       	sbrs	r24, 2
    3d62:	37 c0       	rjmp	.+110    	;  0x3dd2
    3d64:	90 91 f3 00 	lds	r25, 0x00F3	;  0x8000f3
    3d68:	80 91 f2 00 	lds	r24, 0x00F2	;  0x8000f2
    3d6c:	02 97       	sbiw	r24, 0x02	; 2
    3d6e:	31 f4       	brne	.+12     	;  0x3d7c
    3d70:	80 91 f1 00 	lds	r24, 0x00F1	;  0x8000f1
    3d74:	81 30       	cpi	r24, 0x01	; 1
    3d76:	11 f0       	breq	.+4      	;  0x3d7c
    3d78:	86 30       	cpi	r24, 0x06	; 6
    3d7a:	21 f4       	brne	.+8      	;  0x3d84
    3d7c:	80 91 f1 00 	lds	r24, 0x00F1	;  0x8000f1
    3d80:	80 93 7a 02 	sts	0x027A, r24	;  0x80027a
    3d84:	80 91 e8 00 	lds	r24, 0x00E8	;  0x8000e8
    3d88:	8b 77       	andi	r24, 0x7B	; 123
    3d8a:	80 93 e8 00 	sts	0x00E8, r24	;  0x8000e8
    3d8e:	0e 94 3f 21 	call	0x427e	;  0x427e
    3d92:	23 c0       	rjmp	.+70     	;  0x3dda
    3d94:	80 91 9d 02 	lds	r24, 0x029D	;  0x80029d
    3d98:	81 3a       	cpi	r24, 0xA1	; 161
    3d9a:	f9 f4       	brne	.+62     	;  0x3dda
    3d9c:	80 91 e8 00 	lds	r24, 0x00E8	;  0x8000e8
    3da0:	87 7f       	andi	r24, 0xF7	; 247
    3da2:	80 93 e8 00 	sts	0x00E8, r24	;  0x8000e8
    3da6:	80 91 a1 02 	lds	r24, 0x02A1	;  0x8002a1
    3daa:	90 91 a2 02 	lds	r25, 0x02A2	;  0x8002a2
    3dae:	89 2b       	or	r24, r25
    3db0:	61 f4       	brne	.+24     	;  0x3dca
    3db2:	68 e0       	ldi	r22, 0x08	; 8
    3db4:	82 e7       	ldi	r24, 0x72	; 114
    3db6:	92 e0       	ldi	r25, 0x02	; 2
    3db8:	70 e0       	ldi	r23, 0x00	; 0
    3dba:	0e 94 4e 20 	call	0x409c	;  0x409c
    3dbe:	80 91 e8 00 	lds	r24, 0x00E8	;  0x8000e8
    3dc2:	8b 77       	andi	r24, 0x7B	; 123
    3dc4:	80 93 e8 00 	sts	0x00E8, r24	;  0x8000e8
    3dc8:	08 95       	ret
    3dca:	60 e0       	ldi	r22, 0x00	; 0
    3dcc:	90 e0       	ldi	r25, 0x00	; 0
    3dce:	80 e0       	ldi	r24, 0x00	; 0
    3dd0:	f3 cf       	rjmp	.-26     	;  0x3db8
    3dd2:	80 91 9c 02 	lds	r24, 0x029C	;  0x80029c
    3dd6:	81 11       	cpse	r24, r1
    3dd8:	c1 cf       	rjmp	.-126    	;  0x3d5c
    3dda:	08 95       	ret
    3ddc:	80 91 9d 02 	lds	r24, 0x029D	;  0x80029d
    3de0:	81 3a       	cpi	r24, 0xA1	; 161
    3de2:	d9 f7       	brne	.-10     	;  0x3dda
    3de4:	80 91 a1 02 	lds	r24, 0x02A1	;  0x8002a1
    3de8:	90 91 a2 02 	lds	r25, 0x02A2	;  0x8002a2
    3dec:	89 2b       	or	r24, r25
    3dee:	a9 f7       	brne	.-22     	;  0x3dda
    3df0:	80 91 e8 00 	lds	r24, 0x00E8	;  0x8000e8
    3df4:	87 7f       	andi	r24, 0xF7	; 247
    3df6:	80 93 e8 00 	sts	0x00E8, r24	;  0x8000e8
    3dfa:	80 91 e8 00 	lds	r24, 0x00E8	;  0x8000e8
    3dfe:	80 ff       	sbrs	r24, 0
    3e00:	fc cf       	rjmp	.-8      	;  0x3dfa
    3e02:	80 91 2b 01 	lds	r24, 0x012B	;  0x80012b
    3e06:	80 93 f1 00 	sts	0x00F1, r24	;  0x8000f1
    3e0a:	80 91 e8 00 	lds	r24, 0x00E8	;  0x8000e8
    3e0e:	8e 77       	andi	r24, 0x7E	; 126
    3e10:	bc cf       	rjmp	.-136    	;  0x3d8a
    3e12:	80 91 9d 02 	lds	r24, 0x029D	;  0x80029d
    3e16:	81 32       	cpi	r24, 0x21	; 33
    3e18:	01 f7       	brne	.-64     	;  0x3dda
    3e1a:	80 91 a1 02 	lds	r24, 0x02A1	;  0x8002a1
    3e1e:	90 91 a2 02 	lds	r25, 0x02A2	;  0x8002a2
    3e22:	89 2b       	or	r24, r25
    3e24:	d1 f6       	brne	.-76     	;  0x3dda
    3e26:	80 91 e8 00 	lds	r24, 0x00E8	;  0x8000e8
    3e2a:	87 7f       	andi	r24, 0xF7	; 247
    3e2c:	80 93 e8 00 	sts	0x00E8, r24	;  0x8000e8
    3e30:	0e 94 3f 21 	call	0x427e	;  0x427e
    3e34:	80 91 9f 02 	lds	r24, 0x029F	;  0x80029f
    3e38:	80 93 2b 01 	sts	0x012B, r24	;  0x80012b
    3e3c:	0e 94 ef 06 	call	0xdde	;  0xdde
    3e40:	08 95       	ret
    3e42:	80 91 9d 02 	lds	r24, 0x029D	;  0x80029d
    3e46:	81 32       	cpi	r24, 0x21	; 33
    3e48:	41 f6       	brne	.-112    	;  0x3dda
    3e4a:	80 91 e8 00 	lds	r24, 0x00E8	;  0x8000e8
    3e4e:	87 7f       	andi	r24, 0xF7	; 247
    3e50:	80 93 e8 00 	sts	0x00E8, r24	;  0x8000e8
    3e54:	0e 94 3f 21 	call	0x427e	;  0x427e
    3e58:	80 91 a0 02 	lds	r24, 0x02A0	;  0x8002a0
    3e5c:	80 93 7b 02 	sts	0x027B, r24	;  0x80027b
    3e60:	08 95       	ret
    3e62:	80 91 9d 02 	lds	r24, 0x029D	;  0x80029d
    3e66:	81 3a       	cpi	r24, 0xA1	; 161
    3e68:	09 f0       	breq	.+2      	;  0x3e6c
    3e6a:	b7 cf       	rjmp	.-146    	;  0x3dda
    3e6c:	80 91 e8 00 	lds	r24, 0x00E8	;  0x8000e8
    3e70:	87 7f       	andi	r24, 0xF7	; 247
    3e72:	80 93 e8 00 	sts	0x00E8, r24	;  0x8000e8
    3e76:	80 91 e8 00 	lds	r24, 0x00E8	;  0x8000e8
    3e7a:	80 ff       	sbrs	r24, 0
    3e7c:	fc cf       	rjmp	.-8      	;  0x3e76
    3e7e:	80 91 7b 02 	lds	r24, 0x027B	;  0x80027b
    3e82:	c1 cf       	rjmp	.-126    	;  0x3e06
    3e84:	84 b7       	in	r24, 0x34	; 52
    3e86:	87 7f       	andi	r24, 0xF7	; 247
    3e88:	84 bf       	out	0x34, r24	; 52
    3e8a:	0f b6       	in	r0, 0x3f	; 63
    3e8c:	f8 94       	cli
    3e8e:	a8 95       	wdr
    3e90:	80 91 60 00 	lds	r24, 0x0060	;  0x800060
    3e94:	88 61       	ori	r24, 0x18	; 24
    3e96:	80 93 60 00 	sts	0x0060, r24	;  0x800060
    3e9a:	10 92 60 00 	sts	0x0060, r1	;  0x800060
    3e9e:	0f be       	out	0x3f, r0	; 63
    3ea0:	80 e8       	ldi	r24, 0x80	; 128
    3ea2:	90 e0       	ldi	r25, 0x00	; 0
    3ea4:	0f b6       	in	r0, 0x3f	; 63
    3ea6:	f8 94       	cli
    3ea8:	80 93 61 00 	sts	0x0061, r24	;  0x800061
    3eac:	90 93 61 00 	sts	0x0061, r25	;  0x800061
    3eb0:	0f be       	out	0x3f, r0	; 63
    3eb2:	0e 94 3d 1b 	call	0x367a	;  0x367a
    3eb6:	08 95       	ret
    3eb8:	0e 94 8f 21 	call	0x431e	;  0x431e
    3ebc:	0e 94 ec 21 	call	0x43d8	;  0x43d8
    3ec0:	e2 ee       	ldi	r30, 0xE2	; 226
    3ec2:	f0 e0       	ldi	r31, 0x00	; 0
    3ec4:	80 81       	ld	r24, Z
    3ec6:	84 60       	ori	r24, 0x04	; 4
    3ec8:	80 83       	st	Z, r24
    3eca:	78 94       	sei
    3ecc:	0e 94 6b 24 	call	0x48d6	;  0x48d6
    3ed0:	08 95       	ret
    3ed2:	83 e2       	ldi	r24, 0x23	; 35
    3ed4:	91 e0       	ldi	r25, 0x01	; 1
    3ed6:	0e 94 1f 1a 	call	0x343e	;  0x343e
    3eda:	08 95       	ret
    3edc:	80 91 9c 02 	lds	r24, 0x029C	;  0x80029c
    3ee0:	85 30       	cpi	r24, 0x05	; 5
    3ee2:	31 f4       	brne	.+12     	;  0x3ef0
    3ee4:	80 91 9c 02 	lds	r24, 0x029C	;  0x80029c
    3ee8:	85 30       	cpi	r24, 0x05	; 5
    3eea:	19 f0       	breq	.+6      	;  0x3ef2
    3eec:	0e 94 b7 1b 	call	0x376e	;  0x376e
    3ef0:	08 95       	ret
    3ef2:	0e 94 8c 1b 	call	0x3718	;  0x3718
    3ef6:	80 91 9a 02 	lds	r24, 0x029A	;  0x80029a
    3efa:	88 23       	and	r24, r24
    3efc:	99 f3       	breq	.-26     	;  0x3ee4
    3efe:	0e 94 4a 1b 	call	0x3694	;  0x3694
    3f02:	88 23       	and	r24, r24
    3f04:	79 f3       	breq	.-34     	;  0x3ee4
    3f06:	0e 94 e9 1f 	call	0x3fd2	;  0x3fd2
    3f0a:	0e 94 ef 06 	call	0xdde	;  0xdde
    3f0e:	ea cf       	rjmp	.-44     	;  0x3ee4
    3f10:	08 95       	ret
    3f12:	9a 01       	movw	r18, r20
    3f14:	40 91 a3 02 	lds	r20, 0x02A3	;  0x8002a3
    3f18:	50 91 a4 02 	lds	r21, 0x02A4	;  0x8002a4
    3f1c:	0e 94 91 1f 	call	0x3f22	;  0x3f22
    3f20:	08 95       	ret
    3f22:	49 2f       	mov	r20, r25
    3f24:	55 27       	eor	r21, r21
    3f26:	43 30       	cpi	r20, 0x03	; 3
    3f28:	51 05       	cpc	r21, r1
    3f2a:	19 f1       	breq	.+70     	;  0x3f72
    3f2c:	68 f4       	brcc	.+26     	;  0x3f48
    3f2e:	41 30       	cpi	r20, 0x01	; 1
    3f30:	51 05       	cpc	r21, r1
    3f32:	09 f4       	brne	.+2      	;  0x3f36
    3f34:	44 c0       	rjmp	.+136    	;  0x3fbe
    3f36:	42 30       	cpi	r20, 0x02	; 2
    3f38:	51 05       	cpc	r21, r1
    3f3a:	09 f4       	brne	.+2      	;  0x3f3e
    3f3c:	45 c0       	rjmp	.+138    	;  0x3fc8
    3f3e:	90 e0       	ldi	r25, 0x00	; 0
    3f40:	80 e0       	ldi	r24, 0x00	; 0
    3f42:	50 e0       	ldi	r21, 0x00	; 0
    3f44:	40 e0       	ldi	r20, 0x00	; 0
    3f46:	25 c0       	rjmp	.+74     	;  0x3f92
    3f48:	41 32       	cpi	r20, 0x21	; 33
    3f4a:	51 05       	cpc	r21, r1
    3f4c:	49 f1       	breq	.+82     	;  0x3fa0
    3f4e:	42 32       	cpi	r20, 0x22	; 34
    3f50:	51 05       	cpc	r21, r1
    3f52:	a9 f7       	brne	.-22     	;  0x3f3e
    3f54:	84 e4       	ldi	r24, 0x44	; 68
    3f56:	90 e0       	ldi	r25, 0x00	; 0
    3f58:	48 e3       	ldi	r20, 0x38	; 56
    3f5a:	53 e0       	ldi	r21, 0x03	; 3
    3f5c:	61 15       	cp	r22, r1
    3f5e:	71 05       	cpc	r23, r1
    3f60:	c1 f0       	breq	.+48     	;  0x3f92
    3f62:	8b e7       	ldi	r24, 0x7B	; 123
    3f64:	90 e0       	ldi	r25, 0x00	; 0
    3f66:	4d eb       	ldi	r20, 0xBD	; 189
    3f68:	52 e0       	ldi	r21, 0x02	; 2
    3f6a:	61 30       	cpi	r22, 0x01	; 1
    3f6c:	71 05       	cpc	r23, r1
    3f6e:	89 f0       	breq	.+34     	;  0x3f92
    3f70:	e6 cf       	rjmp	.-52     	;  0x3f3e
    3f72:	99 27       	eor	r25, r25
    3f74:	81 30       	cpi	r24, 0x01	; 1
    3f76:	91 05       	cpc	r25, r1
    3f78:	81 f0       	breq	.+32     	;  0x3f9a
    3f7a:	00 97       	sbiw	r24, 0x00	; 0
    3f7c:	29 f0       	breq	.+10     	;  0x3f88
    3f7e:	02 97       	sbiw	r24, 0x02	; 2
    3f80:	f1 f6       	brne	.-68     	;  0x3f3e
    3f82:	ec e3       	ldi	r30, 0x3C	; 60
    3f84:	f2 e0       	ldi	r31, 0x02	; 2
    3f86:	02 c0       	rjmp	.+4      	;  0x3f8c
    3f88:	ec e6       	ldi	r30, 0x6C	; 108
    3f8a:	f2 e0       	ldi	r31, 0x02	; 2
    3f8c:	84 91       	lpm	r24, Z
    3f8e:	90 e0       	ldi	r25, 0x00	; 0
    3f90:	af 01       	movw	r20, r30
    3f92:	f9 01       	movw	r30, r18
    3f94:	51 83       	std	Z+1, r21	; 0x01
    3f96:	40 83       	st	Z, r20
    3f98:	08 95       	ret
    3f9a:	ee e4       	ldi	r30, 0x4E	; 78
    3f9c:	f2 e0       	ldi	r31, 0x02	; 2
    3f9e:	f6 cf       	rjmp	.-20     	;  0x3f8c
    3fa0:	89 e0       	ldi	r24, 0x09	; 9
    3fa2:	90 e0       	ldi	r25, 0x00	; 0
    3fa4:	42 e8       	ldi	r20, 0x82	; 130
    3fa6:	52 e0       	ldi	r21, 0x02	; 2
    3fa8:	61 15       	cp	r22, r1
    3faa:	71 05       	cpc	r23, r1
    3fac:	91 f3       	breq	.-28     	;  0x3f92
    3fae:	89 e0       	ldi	r24, 0x09	; 9
    3fb0:	90 e0       	ldi	r25, 0x00	; 0
    3fb2:	4b e9       	ldi	r20, 0x9B	; 155
    3fb4:	52 e0       	ldi	r21, 0x02	; 2
    3fb6:	61 30       	cpi	r22, 0x01	; 1
    3fb8:	71 05       	cpc	r23, r1
    3fba:	59 f3       	breq	.-42     	;  0x3f92
    3fbc:	c0 cf       	rjmp	.-128    	;  0x3f3e
    3fbe:	82 e1       	ldi	r24, 0x12	; 18
    3fc0:	90 e0       	ldi	r25, 0x00	; 0
    3fc2:	4b ea       	ldi	r20, 0xAB	; 171
    3fc4:	52 e0       	ldi	r21, 0x02	; 2
    3fc6:	e5 cf       	rjmp	.-54     	;  0x3f92
    3fc8:	8b e3       	ldi	r24, 0x3B	; 59
    3fca:	90 e0       	ldi	r25, 0x00	; 0
    3fcc:	40 e7       	ldi	r20, 0x70	; 112
    3fce:	52 e0       	ldi	r21, 0x02	; 2
    3fd0:	e0 cf       	rjmp	.-64     	;  0x3f92
    3fd2:	80 e1       	ldi	r24, 0x10	; 16
    3fd4:	89 bd       	out	0x29, r24	; 41
    3fd6:	82 e1       	ldi	r24, 0x12	; 18
    3fd8:	89 bd       	out	0x29, r24	; 41
    3fda:	09 b4       	in	r0, 0x29	; 41
    3fdc:	00 fe       	sbrs	r0, 0
    3fde:	fd cf       	rjmp	.-6      	;  0x3fda
    3fe0:	80 91 d8 00 	lds	r24, 0x00D8	;  0x8000d8
    3fe4:	8f 7d       	andi	r24, 0xDF	; 223
    3fe6:	80 93 d8 00 	sts	0x00D8, r24	;  0x8000d8
    3fea:	80 91 e0 00 	lds	r24, 0x00E0	;  0x8000e0
    3fee:	82 60       	ori	r24, 0x02	; 2
    3ff0:	80 93 e0 00 	sts	0x00E0, r24	;  0x8000e0
    3ff4:	80 91 e0 00 	lds	r24, 0x00E0	;  0x8000e0
    3ff8:	81 fd       	sbrc	r24, 1
    3ffa:	fc cf       	rjmp	.-8      	;  0x3ff4
    3ffc:	08 95       	ret
    3ffe:	af 92       	push	r10
    4000:	bf 92       	push	r11
    4002:	cf 92       	push	r12
    4004:	df 92       	push	r13
    4006:	ff 92       	push	r15
    4008:	0f 93       	push	r16
    400a:	1f 93       	push	r17
    400c:	cf 93       	push	r28
    400e:	df 93       	push	r29
    4010:	6c 01       	movw	r12, r24
    4012:	eb 01       	movw	r28, r22
    4014:	8a 01       	movw	r16, r20
    4016:	0e 94 5e 21 	call	0x42bc	;  0x42bc
    401a:	f8 2e       	mov	r15, r24
    401c:	81 11       	cpse	r24, r1
    401e:	23 c0       	rjmp	.+70     	;  0x4066
    4020:	01 15       	cp	r16, r1
    4022:	11 05       	cpc	r17, r1
    4024:	39 f0       	breq	.+14     	;  0x4034
    4026:	f8 01       	movw	r30, r16
    4028:	80 81       	ld	r24, Z
    402a:	91 81       	ldd	r25, Z+1	; 0x01
    402c:	c8 1b       	sub	r28, r24
    402e:	d9 0b       	sbc	r29, r25
    4030:	c8 0e       	add	r12, r24
    4032:	d9 1e       	adc	r13, r25
    4034:	b1 2c       	mov	r11, r1
    4036:	a1 2c       	mov	r10, r1
    4038:	20 97       	sbiw	r28, 0x00	; 0
    403a:	a9 f0       	breq	.+42     	;  0x4066
    403c:	80 91 e8 00 	lds	r24, 0x00E8	;  0x8000e8
    4040:	85 fd       	sbrc	r24, 5
    4042:	22 c0       	rjmp	.+68     	;  0x4088
    4044:	80 91 e8 00 	lds	r24, 0x00E8	;  0x8000e8
    4048:	8e 77       	andi	r24, 0x7E	; 126
    404a:	80 93 e8 00 	sts	0x00E8, r24	;  0x8000e8
    404e:	01 15       	cp	r16, r1
    4050:	11 05       	cpc	r17, r1
    4052:	a1 f0       	breq	.+40     	;  0x407c
    4054:	f8 01       	movw	r30, r16
    4056:	80 81       	ld	r24, Z
    4058:	91 81       	ldd	r25, Z+1	; 0x01
    405a:	a8 0e       	add	r10, r24
    405c:	b9 1e       	adc	r11, r25
    405e:	b1 82       	std	Z+1, r11	; 0x01
    4060:	a0 82       	st	Z, r10
    4062:	85 e0       	ldi	r24, 0x05	; 5
    4064:	f8 2e       	mov	r15, r24
    4066:	8f 2d       	mov	r24, r15
    4068:	df 91       	pop	r29
    406a:	cf 91       	pop	r28
    406c:	1f 91       	pop	r17
    406e:	0f 91       	pop	r16
    4070:	ff 90       	pop	r15
    4072:	df 90       	pop	r13
    4074:	cf 90       	pop	r12
    4076:	bf 90       	pop	r11
    4078:	af 90       	pop	r10
    407a:	08 95       	ret
    407c:	0e 94 5e 21 	call	0x42bc	;  0x42bc
    4080:	88 23       	and	r24, r24
    4082:	d1 f2       	breq	.-76     	;  0x4038
    4084:	f8 2e       	mov	r15, r24
    4086:	ef cf       	rjmp	.-34     	;  0x4066
    4088:	f6 01       	movw	r30, r12
    408a:	81 91       	ld	r24, Z+
    408c:	6f 01       	movw	r12, r30
    408e:	80 93 f1 00 	sts	0x00F1, r24	;  0x8000f1
    4092:	21 97       	sbiw	r28, 0x01	; 1
    4094:	ff ef       	ldi	r31, 0xFF	; 255
    4096:	af 1a       	sub	r10, r31
    4098:	bf 0a       	sbc	r11, r31
    409a:	ce cf       	rjmp	.-100    	;  0x4038
    409c:	fc 01       	movw	r30, r24
    409e:	80 91 a3 02 	lds	r24, 0x02A3	;  0x8002a3
    40a2:	90 91 a4 02 	lds	r25, 0x02A4	;  0x8002a4
    40a6:	86 17       	cp	r24, r22
    40a8:	97 07       	cpc	r25, r23
    40aa:	a0 f0       	brcs	.+40     	;  0x40d4
    40ac:	61 15       	cp	r22, r1
    40ae:	71 05       	cpc	r23, r1
    40b0:	29 f4       	brne	.+10     	;  0x40bc
    40b2:	90 91 e8 00 	lds	r25, 0x00E8	;  0x8000e8
    40b6:	9e 77       	andi	r25, 0x7E	; 126
    40b8:	90 93 e8 00 	sts	0x00E8, r25	;  0x8000e8
    40bc:	90 e0       	ldi	r25, 0x00	; 0
    40be:	61 15       	cp	r22, r1
    40c0:	71 05       	cpc	r23, r1
    40c2:	51 f4       	brne	.+20     	;  0x40d8
    40c4:	91 11       	cpse	r25, r1
    40c6:	08 c0       	rjmp	.+16     	;  0x40d8
    40c8:	80 91 e8 00 	lds	r24, 0x00E8	;  0x8000e8
    40cc:	82 ff       	sbrs	r24, 2
    40ce:	34 c0       	rjmp	.+104    	;  0x4138
    40d0:	80 e0       	ldi	r24, 0x00	; 0
    40d2:	08 95       	ret
    40d4:	bc 01       	movw	r22, r24
    40d6:	f2 cf       	rjmp	.-28     	;  0x40bc
    40d8:	80 91 9c 02 	lds	r24, 0x029C	;  0x80029c
    40dc:	88 23       	and	r24, r24
    40de:	c1 f1       	breq	.+112    	;  0x4150
    40e0:	85 30       	cpi	r24, 0x05	; 5
    40e2:	c1 f1       	breq	.+112    	;  0x4154
    40e4:	80 91 e8 00 	lds	r24, 0x00E8	;  0x8000e8
    40e8:	83 fd       	sbrc	r24, 3
    40ea:	30 c0       	rjmp	.+96     	;  0x414c
    40ec:	80 91 e8 00 	lds	r24, 0x00E8	;  0x8000e8
    40f0:	82 fd       	sbrc	r24, 2
    40f2:	ea cf       	rjmp	.-44     	;  0x40c8
    40f4:	80 91 e8 00 	lds	r24, 0x00E8	;  0x8000e8
    40f8:	80 ff       	sbrs	r24, 0
    40fa:	e1 cf       	rjmp	.-62     	;  0x40be
    40fc:	80 91 f3 00 	lds	r24, 0x00F3	;  0x8000f3
    4100:	20 91 f2 00 	lds	r18, 0x00F2	;  0x8000f2
    4104:	38 2f       	mov	r19, r24
    4106:	61 15       	cp	r22, r1
    4108:	71 05       	cpc	r23, r1
    410a:	19 f0       	breq	.+6      	;  0x4112
    410c:	28 30       	cpi	r18, 0x08	; 8
    410e:	31 05       	cpc	r19, r1
    4110:	58 f0       	brcs	.+22     	;  0x4128
    4112:	91 e0       	ldi	r25, 0x01	; 1
    4114:	28 30       	cpi	r18, 0x08	; 8
    4116:	31 05       	cpc	r19, r1
    4118:	09 f0       	breq	.+2      	;  0x411c
    411a:	90 e0       	ldi	r25, 0x00	; 0
    411c:	20 91 e8 00 	lds	r18, 0x00E8	;  0x8000e8
    4120:	2e 77       	andi	r18, 0x7E	; 126
    4122:	20 93 e8 00 	sts	0x00E8, r18	;  0x8000e8
    4126:	cb cf       	rjmp	.-106    	;  0x40be
    4128:	81 91       	ld	r24, Z+
    412a:	80 93 f1 00 	sts	0x00F1, r24	;  0x8000f1
    412e:	61 50       	subi	r22, 0x01	; 1
    4130:	71 09       	sbc	r23, r1
    4132:	2f 5f       	subi	r18, 0xFF	; 255
    4134:	3f 4f       	sbci	r19, 0xFF	; 255
    4136:	e7 cf       	rjmp	.-50     	;  0x4106
    4138:	80 91 9c 02 	lds	r24, 0x029C	;  0x80029c
    413c:	88 23       	and	r24, r24
    413e:	41 f0       	breq	.+16     	;  0x4150
    4140:	85 30       	cpi	r24, 0x05	; 5
    4142:	41 f0       	breq	.+16     	;  0x4154
    4144:	80 91 e8 00 	lds	r24, 0x00E8	;  0x8000e8
    4148:	83 ff       	sbrs	r24, 3
    414a:	be cf       	rjmp	.-132    	;  0x40c8
    414c:	81 e0       	ldi	r24, 0x01	; 1
    414e:	08 95       	ret
    4150:	82 e0       	ldi	r24, 0x02	; 2
    4152:	08 95       	ret
    4154:	83 e0       	ldi	r24, 0x03	; 3
    4156:	08 95       	ret
    4158:	fc 01       	movw	r30, r24
    415a:	80 91 a3 02 	lds	r24, 0x02A3	;  0x8002a3
    415e:	90 91 a4 02 	lds	r25, 0x02A4	;  0x8002a4
    4162:	86 17       	cp	r24, r22
    4164:	97 07       	cpc	r25, r23
    4166:	a0 f0       	brcs	.+40     	;  0x4190
    4168:	61 15       	cp	r22, r1
    416a:	71 05       	cpc	r23, r1
    416c:	29 f4       	brne	.+10     	;  0x4178
    416e:	80 91 e8 00 	lds	r24, 0x00E8	;  0x8000e8
    4172:	8e 77       	andi	r24, 0x7E	; 126
    4174:	80 93 e8 00 	sts	0x00E8, r24	;  0x8000e8
    4178:	90 e0       	ldi	r25, 0x00	; 0
    417a:	61 15       	cp	r22, r1
    417c:	71 05       	cpc	r23, r1
    417e:	51 f4       	brne	.+20     	;  0x4194
    4180:	91 11       	cpse	r25, r1
    4182:	08 c0       	rjmp	.+16     	;  0x4194
    4184:	80 91 e8 00 	lds	r24, 0x00E8	;  0x8000e8
    4188:	82 ff       	sbrs	r24, 2
    418a:	35 c0       	rjmp	.+106    	;  0x41f6
    418c:	80 e0       	ldi	r24, 0x00	; 0
    418e:	08 95       	ret
    4190:	bc 01       	movw	r22, r24
    4192:	f2 cf       	rjmp	.-28     	;  0x4178
    4194:	80 91 9c 02 	lds	r24, 0x029C	;  0x80029c
    4198:	88 23       	and	r24, r24
    419a:	c9 f1       	breq	.+114    	;  0x420e
    419c:	85 30       	cpi	r24, 0x05	; 5
    419e:	c9 f1       	breq	.+114    	;  0x4212
    41a0:	80 91 e8 00 	lds	r24, 0x00E8	;  0x8000e8
    41a4:	83 fd       	sbrc	r24, 3
    41a6:	31 c0       	rjmp	.+98     	;  0x420a
    41a8:	80 91 e8 00 	lds	r24, 0x00E8	;  0x8000e8
    41ac:	82 fd       	sbrc	r24, 2
    41ae:	ea cf       	rjmp	.-44     	;  0x4184
    41b0:	80 91 e8 00 	lds	r24, 0x00E8	;  0x8000e8
    41b4:	80 ff       	sbrs	r24, 0
    41b6:	e1 cf       	rjmp	.-62     	;  0x417a
    41b8:	80 91 f3 00 	lds	r24, 0x00F3	;  0x8000f3
    41bc:	20 91 f2 00 	lds	r18, 0x00F2	;  0x8000f2
    41c0:	38 2f       	mov	r19, r24
    41c2:	61 15       	cp	r22, r1
    41c4:	71 05       	cpc	r23, r1
    41c6:	19 f0       	breq	.+6      	;  0x41ce
    41c8:	28 30       	cpi	r18, 0x08	; 8
    41ca:	31 05       	cpc	r19, r1
    41cc:	58 f0       	brcs	.+22     	;  0x41e4
    41ce:	91 e0       	ldi	r25, 0x01	; 1
    41d0:	28 30       	cpi	r18, 0x08	; 8
    41d2:	31 05       	cpc	r19, r1
    41d4:	09 f0       	breq	.+2      	;  0x41d8
    41d6:	90 e0       	ldi	r25, 0x00	; 0
    41d8:	80 91 e8 00 	lds	r24, 0x00E8	;  0x8000e8
    41dc:	8e 77       	andi	r24, 0x7E	; 126
    41de:	80 93 e8 00 	sts	0x00E8, r24	;  0x8000e8
    41e2:	cb cf       	rjmp	.-106    	;  0x417a
    41e4:	84 91       	lpm	r24, Z
    41e6:	80 93 f1 00 	sts	0x00F1, r24	;  0x8000f1
    41ea:	31 96       	adiw	r30, 0x01	; 1
    41ec:	61 50       	subi	r22, 0x01	; 1
    41ee:	71 09       	sbc	r23, r1
    41f0:	2f 5f       	subi	r18, 0xFF	; 255
    41f2:	3f 4f       	sbci	r19, 0xFF	; 255
    41f4:	e6 cf       	rjmp	.-52     	;  0x41c2
    41f6:	80 91 9c 02 	lds	r24, 0x029C	;  0x80029c
    41fa:	88 23       	and	r24, r24
    41fc:	41 f0       	breq	.+16     	;  0x420e
    41fe:	85 30       	cpi	r24, 0x05	; 5
    4200:	41 f0       	breq	.+16     	;  0x4212
    4202:	80 91 e8 00 	lds	r24, 0x00E8	;  0x8000e8
    4206:	83 ff       	sbrs	r24, 3
    4208:	bd cf       	rjmp	.-134    	;  0x4184
    420a:	81 e0       	ldi	r24, 0x01	; 1
    420c:	08 95       	ret
    420e:	82 e0       	ldi	r24, 0x02	; 2
    4210:	08 95       	ret
    4212:	83 e0       	ldi	r24, 0x03	; 3
    4214:	08 95       	ret
    4216:	98 2f       	mov	r25, r24
    4218:	97 30       	cpi	r25, 0x07	; 7
    421a:	28 f0       	brcs	.+10     	;  0x4226
    421c:	8f 70       	andi	r24, 0x0F	; 15
    421e:	80 93 e9 00 	sts	0x00E9, r24	;  0x8000e9
    4222:	81 e0       	ldi	r24, 0x01	; 1
    4224:	08 95       	ret
    4226:	90 93 e9 00 	sts	0x00E9, r25	;  0x8000e9
    422a:	24 2f       	mov	r18, r20
    422c:	76 2f       	mov	r23, r22
    422e:	50 e0       	ldi	r21, 0x00	; 0
    4230:	98 17       	cp	r25, r24
    4232:	31 f0       	breq	.+12     	;  0x4240
    4234:	70 91 ec 00 	lds	r23, 0x00EC	;  0x8000ec
    4238:	20 91 ed 00 	lds	r18, 0x00ED	;  0x8000ed
    423c:	50 91 f0 00 	lds	r21, 0x00F0	;  0x8000f0
    4240:	21 fd       	sbrc	r18, 1
    4242:	02 c0       	rjmp	.+4      	;  0x4248
    4244:	9f 5f       	subi	r25, 0xFF	; 255
    4246:	e8 cf       	rjmp	.-48     	;  0x4218
    4248:	30 91 eb 00 	lds	r19, 0x00EB	;  0x8000eb
    424c:	3e 7f       	andi	r19, 0xFE	; 254
    424e:	30 93 eb 00 	sts	0x00EB, r19	;  0x8000eb
    4252:	30 91 ed 00 	lds	r19, 0x00ED	;  0x8000ed
    4256:	3d 7f       	andi	r19, 0xFD	; 253
    4258:	30 93 ed 00 	sts	0x00ED, r19	;  0x8000ed
    425c:	30 91 eb 00 	lds	r19, 0x00EB	;  0x8000eb
    4260:	31 60       	ori	r19, 0x01	; 1
    4262:	30 93 eb 00 	sts	0x00EB, r19	;  0x8000eb
    4266:	70 93 ec 00 	sts	0x00EC, r23	;  0x8000ec
    426a:	20 93 ed 00 	sts	0x00ED, r18	;  0x8000ed
    426e:	50 93 f0 00 	sts	0x00F0, r21	;  0x8000f0
    4272:	20 91 ee 00 	lds	r18, 0x00EE	;  0x8000ee
    4276:	27 fd       	sbrc	r18, 7
    4278:	e5 cf       	rjmp	.-54     	;  0x4244
    427a:	80 e0       	ldi	r24, 0x00	; 0
    427c:	08 95       	ret
    427e:	80 91 9d 02 	lds	r24, 0x029D	;  0x80029d
    4282:	87 ff       	sbrs	r24, 7
    4284:	13 c0       	rjmp	.+38     	;  0x42ac
    4286:	80 91 e8 00 	lds	r24, 0x00E8	;  0x8000e8
    428a:	82 ff       	sbrs	r24, 2
    428c:	06 c0       	rjmp	.+12     	;  0x429a
    428e:	80 91 e8 00 	lds	r24, 0x00E8	;  0x8000e8
    4292:	8b 77       	andi	r24, 0x7B	; 123
    4294:	80 93 e8 00 	sts	0x00E8, r24	;  0x8000e8
    4298:	04 c0       	rjmp	.+8      	;  0x42a2
    429a:	80 91 9c 02 	lds	r24, 0x029C	;  0x80029c
    429e:	81 11       	cpse	r24, r1
    42a0:	f2 cf       	rjmp	.-28     	;  0x4286
    42a2:	08 95       	ret
    42a4:	80 91 9c 02 	lds	r24, 0x029C	;  0x80029c
    42a8:	88 23       	and	r24, r24
    42aa:	d9 f3       	breq	.-10     	;  0x42a2
    42ac:	80 91 e8 00 	lds	r24, 0x00E8	;  0x8000e8
    42b0:	80 ff       	sbrs	r24, 0
    42b2:	f8 cf       	rjmp	.-16     	;  0x42a4
    42b4:	80 91 e8 00 	lds	r24, 0x00E8	;  0x8000e8
    42b8:	8e 77       	andi	r24, 0x7E	; 126
    42ba:	ec cf       	rjmp	.-40     	;  0x4294
    42bc:	20 91 e4 00 	lds	r18, 0x00E4	;  0x8000e4
    42c0:	30 91 e5 00 	lds	r19, 0x00E5	;  0x8000e5
    42c4:	95 e6       	ldi	r25, 0x65	; 101
    42c6:	a9 01       	movw	r20, r18
    42c8:	20 91 ec 00 	lds	r18, 0x00EC	;  0x8000ec
    42cc:	82 2f       	mov	r24, r18
    42ce:	81 70       	andi	r24, 0x01	; 1
    42d0:	20 ff       	sbrs	r18, 0
    42d2:	06 c0       	rjmp	.+12     	;  0x42e0
    42d4:	80 91 e8 00 	lds	r24, 0x00E8	;  0x8000e8
    42d8:	80 ff       	sbrs	r24, 0
    42da:	06 c0       	rjmp	.+12     	;  0x42e8
    42dc:	80 e0       	ldi	r24, 0x00	; 0
    42de:	08 95       	ret
    42e0:	20 91 e8 00 	lds	r18, 0x00E8	;  0x8000e8
    42e4:	22 fd       	sbrc	r18, 2
    42e6:	1a c0       	rjmp	.+52     	;  0x431c
    42e8:	80 91 9c 02 	lds	r24, 0x029C	;  0x80029c
    42ec:	88 23       	and	r24, r24
    42ee:	89 f0       	breq	.+34     	;  0x4312
    42f0:	85 30       	cpi	r24, 0x05	; 5
    42f2:	89 f0       	breq	.+34     	;  0x4316
    42f4:	80 91 eb 00 	lds	r24, 0x00EB	;  0x8000eb
    42f8:	85 fd       	sbrc	r24, 5
    42fa:	0f c0       	rjmp	.+30     	;  0x431a
    42fc:	20 91 e4 00 	lds	r18, 0x00E4	;  0x8000e4
    4300:	30 91 e5 00 	lds	r19, 0x00E5	;  0x8000e5
    4304:	42 17       	cp	r20, r18
    4306:	53 07       	cpc	r21, r19
    4308:	f9 f2       	breq	.-66     	;  0x42c8
    430a:	91 50       	subi	r25, 0x01	; 1
    430c:	e1 f6       	brne	.-72     	;  0x42c6
    430e:	84 e0       	ldi	r24, 0x04	; 4
    4310:	08 95       	ret
    4312:	82 e0       	ldi	r24, 0x02	; 2
    4314:	08 95       	ret
    4316:	83 e0       	ldi	r24, 0x03	; 3
    4318:	08 95       	ret
    431a:	81 e0       	ldi	r24, 0x01	; 1
    431c:	08 95       	ret
    431e:	0e 94 fe 21 	call	0x43fc	;  0x43fc
    4322:	0e 94 06 22 	call	0x440c	;  0x440c
    4326:	e0 ee       	ldi	r30, 0xE0	; 224
    4328:	f0 e0       	ldi	r31, 0x00	; 0
    432a:	80 81       	ld	r24, Z
    432c:	81 60       	ori	r24, 0x01	; 1
    432e:	80 83       	st	Z, r24
    4330:	e8 ed       	ldi	r30, 0xD8	; 216
    4332:	f0 e0       	ldi	r31, 0x00	; 0
    4334:	80 81       	ld	r24, Z
    4336:	8f 77       	andi	r24, 0x7F	; 127
    4338:	80 83       	st	Z, r24
    433a:	19 bc       	out	0x29, r1	; 41
    433c:	a7 ed       	ldi	r26, 0xD7	; 215
    433e:	b0 e0       	ldi	r27, 0x00	; 0
    4340:	8c 91       	ld	r24, X
    4342:	8e 7f       	andi	r24, 0xFE	; 254
    4344:	8c 93       	st	X, r24
    4346:	80 81       	ld	r24, Z
    4348:	8f 7e       	andi	r24, 0xEF	; 239
    434a:	80 83       	st	Z, r24
    434c:	10 92 9b 02 	sts	0x029B, r1	;  0x80029b
    4350:	08 95       	ret
    4352:	0f 93       	push	r16
    4354:	1f 93       	push	r17
    4356:	cf 93       	push	r28
    4358:	df 93       	push	r29
    435a:	0e 94 fe 21 	call	0x43fc	;  0x43fc
    435e:	0e 94 06 22 	call	0x440c	;  0x440c
    4362:	c8 ed       	ldi	r28, 0xD8	; 216
    4364:	d0 e0       	ldi	r29, 0x00	; 0
    4366:	88 81       	ld	r24, Y
    4368:	8f 77       	andi	r24, 0x7F	; 127
    436a:	88 83       	st	Y, r24
    436c:	88 81       	ld	r24, Y
    436e:	80 68       	ori	r24, 0x80	; 128
    4370:	88 83       	st	Y, r24
    4372:	88 81       	ld	r24, Y
    4374:	8f 7d       	andi	r24, 0xDF	; 223
    4376:	88 83       	st	Y, r24
    4378:	19 bc       	out	0x29, r1	; 41
    437a:	10 92 9c 02 	sts	0x029C, r1	;  0x80029c
    437e:	10 92 98 02 	sts	0x0298, r1	;  0x800298
    4382:	10 92 9a 02 	sts	0x029A, r1	;  0x80029a
    4386:	10 92 99 02 	sts	0x0299, r1	;  0x800299
    438a:	00 ee       	ldi	r16, 0xE0	; 224
    438c:	10 e0       	ldi	r17, 0x00	; 0
    438e:	f8 01       	movw	r30, r16
    4390:	80 81       	ld	r24, Z
    4392:	8b 7f       	andi	r24, 0xFB	; 251
    4394:	80 83       	st	Z, r24
    4396:	88 81       	ld	r24, Y
    4398:	81 60       	ori	r24, 0x01	; 1
    439a:	88 83       	st	Y, r24
    439c:	42 e0       	ldi	r20, 0x02	; 2
    439e:	60 e0       	ldi	r22, 0x00	; 0
    43a0:	80 e0       	ldi	r24, 0x00	; 0
    43a2:	0e 94 0b 21 	call	0x4216	;  0x4216
    43a6:	e1 ee       	ldi	r30, 0xE1	; 225
    43a8:	f0 e0       	ldi	r31, 0x00	; 0
    43aa:	80 81       	ld	r24, Z
    43ac:	8e 7f       	andi	r24, 0xFE	; 254
    43ae:	80 83       	st	Z, r24
    43b0:	e2 ee       	ldi	r30, 0xE2	; 226
    43b2:	f0 e0       	ldi	r31, 0x00	; 0
    43b4:	80 81       	ld	r24, Z
    43b6:	81 60       	ori	r24, 0x01	; 1
    43b8:	80 83       	st	Z, r24
    43ba:	80 81       	ld	r24, Z
    43bc:	88 60       	ori	r24, 0x08	; 8
    43be:	80 83       	st	Z, r24
    43c0:	f8 01       	movw	r30, r16
    43c2:	80 81       	ld	r24, Z
    43c4:	8e 7f       	andi	r24, 0xFE	; 254
    43c6:	80 83       	st	Z, r24
    43c8:	88 81       	ld	r24, Y
    43ca:	80 61       	ori	r24, 0x10	; 16
    43cc:	88 83       	st	Y, r24
    43ce:	df 91       	pop	r29
    43d0:	cf 91       	pop	r28
    43d2:	1f 91       	pop	r17
    43d4:	0f 91       	pop	r16
    43d6:	08 95       	ret
    43d8:	e8 ed       	ldi	r30, 0xD8	; 216
    43da:	f0 e0       	ldi	r31, 0x00	; 0
    43dc:	80 81       	ld	r24, Z
    43de:	8f 7e       	andi	r24, 0xEF	; 239
    43e0:	80 83       	st	Z, r24
    43e2:	e7 ed       	ldi	r30, 0xD7	; 215
    43e4:	f0 e0       	ldi	r31, 0x00	; 0
    43e6:	80 81       	ld	r24, Z
    43e8:	81 60       	ori	r24, 0x01	; 1
    43ea:	80 83       	st	Z, r24
    43ec:	84 e0       	ldi	r24, 0x04	; 4
    43ee:	82 bf       	out	0x32, r24	; 50
    43f0:	81 e0       	ldi	r24, 0x01	; 1
    43f2:	80 93 9b 02 	sts	0x029B, r24	;  0x80029b
    43f6:	0e 94 a9 21 	call	0x4352	;  0x4352
    43fa:	08 95       	ret
    43fc:	e8 ed       	ldi	r30, 0xD8	; 216
    43fe:	f0 e0       	ldi	r31, 0x00	; 0
    4400:	80 81       	ld	r24, Z
    4402:	8e 7f       	andi	r24, 0xFE	; 254
    4404:	80 83       	st	Z, r24
    4406:	10 92 e2 00 	sts	0x00E2, r1	;  0x8000e2
    440a:	08 95       	ret
    440c:	10 92 da 00 	sts	0x00DA, r1	;  0x8000da
    4410:	10 92 e1 00 	sts	0x00E1, r1	;  0x8000e1
    4414:	08 95       	ret
    4416:	1f 92       	push	r1
    4418:	0f 92       	push	r0
    441a:	0f b6       	in	r0, 0x3f	; 63
    441c:	0f 92       	push	r0
    441e:	11 24       	eor	r1, r1
    4420:	2f 93       	push	r18
    4422:	3f 93       	push	r19
    4424:	4f 93       	push	r20
    4426:	5f 93       	push	r21
    4428:	6f 93       	push	r22
    442a:	7f 93       	push	r23
    442c:	8f 93       	push	r24
    442e:	9f 93       	push	r25
    4430:	af 93       	push	r26
    4432:	bf 93       	push	r27
    4434:	ef 93       	push	r30
    4436:	ff 93       	push	r31
    4438:	80 91 e1 00 	lds	r24, 0x00E1	;  0x8000e1
    443c:	82 ff       	sbrs	r24, 2
    443e:	0b c0       	rjmp	.+22     	;  0x4456
    4440:	80 91 e2 00 	lds	r24, 0x00E2	;  0x8000e2
    4444:	82 ff       	sbrs	r24, 2
    4446:	07 c0       	rjmp	.+14     	;  0x4456
    4448:	80 91 e1 00 	lds	r24, 0x00E1	;  0x8000e1
    444c:	8b 7f       	andi	r24, 0xFB	; 251
    444e:	80 93 e1 00 	sts	0x00E1, r24	;  0x8000e1
    4452:	0e 94 6a 24 	call	0x48d4	;  0x48d4
    4456:	80 91 da 00 	lds	r24, 0x00DA	;  0x8000da
    445a:	80 ff       	sbrs	r24, 0
    445c:	19 c0       	rjmp	.+50     	;  0x4490
    445e:	80 91 d8 00 	lds	r24, 0x00D8	;  0x8000d8
    4462:	80 ff       	sbrs	r24, 0
    4464:	15 c0       	rjmp	.+42     	;  0x4490
    4466:	80 91 da 00 	lds	r24, 0x00DA	;  0x8000da
    446a:	8e 7f       	andi	r24, 0xFE	; 254
    446c:	80 93 da 00 	sts	0x00DA, r24	;  0x8000da
    4470:	80 91 d9 00 	lds	r24, 0x00D9	;  0x8000d9
    4474:	80 ff       	sbrs	r24, 0
    4476:	96 c0       	rjmp	.+300    	;  0x45a4
    4478:	80 e1       	ldi	r24, 0x10	; 16
    447a:	89 bd       	out	0x29, r24	; 41
    447c:	82 e1       	ldi	r24, 0x12	; 18
    447e:	89 bd       	out	0x29, r24	; 41
    4480:	09 b4       	in	r0, 0x29	; 41
    4482:	00 fe       	sbrs	r0, 0
    4484:	fd cf       	rjmp	.-6      	;  0x4480
    4486:	81 e0       	ldi	r24, 0x01	; 1
    4488:	80 93 9c 02 	sts	0x029C, r24	;  0x80029c
    448c:	0e 94 4b 1e 	call	0x3c96	;  0x3c96
    4490:	80 91 e1 00 	lds	r24, 0x00E1	;  0x8000e1
    4494:	80 ff       	sbrs	r24, 0
    4496:	19 c0       	rjmp	.+50     	;  0x44ca
    4498:	80 91 e2 00 	lds	r24, 0x00E2	;  0x8000e2
    449c:	80 ff       	sbrs	r24, 0
    449e:	15 c0       	rjmp	.+42     	;  0x44ca
    44a0:	80 91 e2 00 	lds	r24, 0x00E2	;  0x8000e2
    44a4:	8e 7f       	andi	r24, 0xFE	; 254
    44a6:	80 93 e2 00 	sts	0x00E2, r24	;  0x8000e2
    44aa:	80 91 e2 00 	lds	r24, 0x00E2	;  0x8000e2
    44ae:	80 61       	ori	r24, 0x10	; 16
    44b0:	80 93 e2 00 	sts	0x00E2, r24	;  0x8000e2
    44b4:	80 91 d8 00 	lds	r24, 0x00D8	;  0x8000d8
    44b8:	80 62       	ori	r24, 0x20	; 32
    44ba:	80 93 d8 00 	sts	0x00D8, r24	;  0x8000d8
    44be:	19 bc       	out	0x29, r1	; 41
    44c0:	85 e0       	ldi	r24, 0x05	; 5
    44c2:	80 93 9c 02 	sts	0x029C, r24	;  0x80029c
    44c6:	0e 94 5f 1e 	call	0x3cbe	;  0x3cbe
    44ca:	80 91 e1 00 	lds	r24, 0x00E1	;  0x8000e1
    44ce:	84 ff       	sbrs	r24, 4
    44d0:	2b c0       	rjmp	.+86     	;  0x4528
    44d2:	80 91 e2 00 	lds	r24, 0x00E2	;  0x8000e2
    44d6:	84 ff       	sbrs	r24, 4
    44d8:	27 c0       	rjmp	.+78     	;  0x4528
    44da:	80 e1       	ldi	r24, 0x10	; 16
    44dc:	89 bd       	out	0x29, r24	; 41
    44de:	82 e1       	ldi	r24, 0x12	; 18
    44e0:	89 bd       	out	0x29, r24	; 41
    44e2:	89 b5       	in	r24, 0x29	; 41
    44e4:	98 2f       	mov	r25, r24
    44e6:	91 70       	andi	r25, 0x01	; 1
    44e8:	80 ff       	sbrs	r24, 0
    44ea:	fb cf       	rjmp	.-10     	;  0x44e2
    44ec:	80 91 d8 00 	lds	r24, 0x00D8	;  0x8000d8
    44f0:	8f 7d       	andi	r24, 0xDF	; 223
    44f2:	80 93 d8 00 	sts	0x00D8, r24	;  0x8000d8
    44f6:	80 91 e1 00 	lds	r24, 0x00E1	;  0x8000e1
    44fa:	8f 7e       	andi	r24, 0xEF	; 239
    44fc:	80 93 e1 00 	sts	0x00E1, r24	;  0x8000e1
    4500:	80 91 e2 00 	lds	r24, 0x00E2	;  0x8000e2
    4504:	8f 7e       	andi	r24, 0xEF	; 239
    4506:	80 93 e2 00 	sts	0x00E2, r24	;  0x8000e2
    450a:	80 91 e2 00 	lds	r24, 0x00E2	;  0x8000e2
    450e:	81 60       	ori	r24, 0x01	; 1
    4510:	80 93 e2 00 	sts	0x00E2, r24	;  0x8000e2
    4514:	80 91 98 02 	lds	r24, 0x0298	;  0x800298
    4518:	88 23       	and	r24, r24
    451a:	09 f4       	brne	.+2      	;  0x451e
    451c:	49 c0       	rjmp	.+146    	;  0x45b0
    451e:	84 e0       	ldi	r24, 0x04	; 4
    4520:	80 93 9c 02 	sts	0x029C, r24	;  0x80029c
    4524:	0e 94 68 1e 	call	0x3cd0	;  0x3cd0
    4528:	80 91 e1 00 	lds	r24, 0x00E1	;  0x8000e1
    452c:	83 ff       	sbrs	r24, 3
    452e:	29 c0       	rjmp	.+82     	;  0x4582
    4530:	80 91 e2 00 	lds	r24, 0x00E2	;  0x8000e2
    4534:	83 ff       	sbrs	r24, 3
    4536:	25 c0       	rjmp	.+74     	;  0x4582
    4538:	80 91 e1 00 	lds	r24, 0x00E1	;  0x8000e1
    453c:	87 7f       	andi	r24, 0xF7	; 247
    453e:	80 93 e1 00 	sts	0x00E1, r24	;  0x8000e1
    4542:	82 e0       	ldi	r24, 0x02	; 2
    4544:	80 93 9c 02 	sts	0x029C, r24	;  0x80029c
    4548:	10 92 98 02 	sts	0x0298, r1	;  0x800298
    454c:	80 91 e1 00 	lds	r24, 0x00E1	;  0x8000e1
    4550:	8e 7f       	andi	r24, 0xFE	; 254
    4552:	80 93 e1 00 	sts	0x00E1, r24	;  0x8000e1
    4556:	80 91 e2 00 	lds	r24, 0x00E2	;  0x8000e2
    455a:	8e 7f       	andi	r24, 0xFE	; 254
    455c:	80 93 e2 00 	sts	0x00E2, r24	;  0x8000e2
    4560:	80 91 e2 00 	lds	r24, 0x00E2	;  0x8000e2
    4564:	80 61       	ori	r24, 0x10	; 16
    4566:	80 93 e2 00 	sts	0x00E2, r24	;  0x8000e2
    456a:	42 e0       	ldi	r20, 0x02	; 2
    456c:	60 e0       	ldi	r22, 0x00	; 0
    456e:	80 e0       	ldi	r24, 0x00	; 0
    4570:	0e 94 0b 21 	call	0x4216	;  0x4216
    4574:	80 91 f0 00 	lds	r24, 0x00F0	;  0x8000f0
    4578:	88 60       	ori	r24, 0x08	; 8
    457a:	80 93 f0 00 	sts	0x00F0, r24	;  0x8000f0
    457e:	0e 94 5c 1e 	call	0x3cb8	;  0x3cb8
    4582:	ff 91       	pop	r31
    4584:	ef 91       	pop	r30
    4586:	bf 91       	pop	r27
    4588:	af 91       	pop	r26
    458a:	9f 91       	pop	r25
    458c:	8f 91       	pop	r24
    458e:	7f 91       	pop	r23
    4590:	6f 91       	pop	r22
    4592:	5f 91       	pop	r21
    4594:	4f 91       	pop	r20
    4596:	3f 91       	pop	r19
    4598:	2f 91       	pop	r18
    459a:	0f 90       	pop	r0
    459c:	0f be       	out	0x3f, r0	; 63
    459e:	0f 90       	pop	r0
    45a0:	1f 90       	pop	r1
    45a2:	18 95       	reti
    45a4:	19 bc       	out	0x29, r1	; 41
    45a6:	10 92 9c 02 	sts	0x029C, r1	;  0x80029c
    45aa:	0e 94 59 1e 	call	0x3cb2	;  0x3cb2
    45ae:	70 cf       	rjmp	.-288    	;  0x4490
    45b0:	80 91 e3 00 	lds	r24, 0x00E3	;  0x8000e3
    45b4:	87 fd       	sbrc	r24, 7
    45b6:	93 e0       	ldi	r25, 0x03	; 3
    45b8:	90 93 9c 02 	sts	0x029C, r25	;  0x80029c
    45bc:	b3 cf       	rjmp	.-154    	;  0x4524
    45be:	1f 92       	push	r1
    45c0:	0f 92       	push	r0
    45c2:	0f b6       	in	r0, 0x3f	; 63
    45c4:	0f 92       	push	r0
    45c6:	11 24       	eor	r1, r1
    45c8:	2f 93       	push	r18
    45ca:	3f 93       	push	r19
    45cc:	4f 93       	push	r20
    45ce:	5f 93       	push	r21
    45d0:	6f 93       	push	r22
    45d2:	7f 93       	push	r23
    45d4:	8f 93       	push	r24
    45d6:	9f 93       	push	r25
    45d8:	af 93       	push	r26
    45da:	bf 93       	push	r27
    45dc:	cf 93       	push	r28
    45de:	df 93       	push	r29
    45e0:	ef 93       	push	r30
    45e2:	ff 93       	push	r31
    45e4:	d0 91 e9 00 	lds	r29, 0x00E9	;  0x8000e9
    45e8:	df 70       	andi	r29, 0x0F	; 15
    45ea:	80 91 ec 00 	lds	r24, 0x00EC	;  0x8000ec
    45ee:	c8 2f       	mov	r28, r24
    45f0:	c1 70       	andi	r28, 0x01	; 1
    45f2:	80 fd       	sbrc	r24, 0
    45f4:	c0 e8       	ldi	r28, 0x80	; 128
    45f6:	10 92 e9 00 	sts	0x00E9, r1	;  0x8000e9
    45fa:	80 91 f0 00 	lds	r24, 0x00F0	;  0x8000f0
    45fe:	87 7f       	andi	r24, 0xF7	; 247
    4600:	80 93 f0 00 	sts	0x00F0, r24	;  0x8000f0
    4604:	78 94       	sei
    4606:	0e 94 23 23 	call	0x4646	;  0x4646
    460a:	10 92 e9 00 	sts	0x00E9, r1	;  0x8000e9
    460e:	80 91 f0 00 	lds	r24, 0x00F0	;  0x8000f0
    4612:	88 60       	ori	r24, 0x08	; 8
    4614:	80 93 f0 00 	sts	0x00F0, r24	;  0x8000f0
    4618:	cd 2b       	or	r28, r29
    461a:	cf 70       	andi	r28, 0x0F	; 15
    461c:	c0 93 e9 00 	sts	0x00E9, r28	;  0x8000e9
    4620:	ff 91       	pop	r31
    4622:	ef 91       	pop	r30
    4624:	df 91       	pop	r29
    4626:	cf 91       	pop	r28
    4628:	bf 91       	pop	r27
    462a:	af 91       	pop	r26
    462c:	9f 91       	pop	r25
    462e:	8f 91       	pop	r24
    4630:	7f 91       	pop	r23
    4632:	6f 91       	pop	r22
    4634:	5f 91       	pop	r21
    4636:	4f 91       	pop	r20
    4638:	3f 91       	pop	r19
    463a:	2f 91       	pop	r18
    463c:	0f 90       	pop	r0
    463e:	0f be       	out	0x3f, r0	; 63
    4640:	0f 90       	pop	r0
    4642:	1f 90       	pop	r1
    4644:	18 95       	reti
    4646:	aa e2       	ldi	r26, 0x2A	; 42
    4648:	b0 e0       	ldi	r27, 0x00	; 0
    464a:	e9 e2       	ldi	r30, 0x29	; 41
    464c:	f3 e2       	ldi	r31, 0x23	; 35
    464e:	0c 94 c1 24 	jmp	0x4982	;  0x4982
    4652:	8d e9       	ldi	r24, 0x9D	; 157
    4654:	92 e0       	ldi	r25, 0x02	; 2
    4656:	20 91 f1 00 	lds	r18, 0x00F1	;  0x8000f1
    465a:	fc 01       	movw	r30, r24
    465c:	21 93       	st	Z+, r18
    465e:	cf 01       	movw	r24, r30
    4660:	f2 e0       	ldi	r31, 0x02	; 2
    4662:	85 3a       	cpi	r24, 0xA5	; 165
    4664:	9f 07       	cpc	r25, r31
    4666:	b9 f7       	brne	.-18     	;  0x4656
    4668:	0e 94 88 1e 	call	0x3d10	;  0x3d10
    466c:	80 91 e8 00 	lds	r24, 0x00E8	;  0x8000e8
    4670:	83 ff       	sbrs	r24, 3
    4672:	1e c1       	rjmp	.+572    	;  0x48b0
    4674:	80 91 9d 02 	lds	r24, 0x029D	;  0x80029d
    4678:	90 91 9e 02 	lds	r25, 0x029E	;  0x80029e
    467c:	9a 30       	cpi	r25, 0x0A	; 10
    467e:	08 f0       	brcs	.+2      	;  0x4682
    4680:	17 c1       	rjmp	.+558    	;  0x48b0
    4682:	e9 2f       	mov	r30, r25
    4684:	f0 e0       	ldi	r31, 0x00	; 0
    4686:	e4 56       	subi	r30, 0x64	; 100
    4688:	fa 4d       	sbci	r31, 0xDA	; 218
    468a:	0c 94 ac 24 	jmp	0x4958	;  0x4958
    468e:	80 38       	cpi	r24, 0x80	; 128
    4690:	99 f0       	breq	.+38     	;  0x46b8
    4692:	82 38       	cpi	r24, 0x82	; 130
    4694:	09 f0       	breq	.+2      	;  0x4698
    4696:	0c c1       	rjmp	.+536    	;  0x48b0
    4698:	80 91 a1 02 	lds	r24, 0x02A1	;  0x8002a1
    469c:	8f 70       	andi	r24, 0x0F	; 15
    469e:	87 30       	cpi	r24, 0x07	; 7
    46a0:	08 f0       	brcs	.+2      	;  0x46a4
    46a2:	06 c1       	rjmp	.+524    	;  0x48b0
    46a4:	80 93 e9 00 	sts	0x00E9, r24	;  0x8000e9
    46a8:	80 91 eb 00 	lds	r24, 0x00EB	;  0x8000eb
    46ac:	85 fb       	bst	r24, 5
    46ae:	88 27       	eor	r24, r24
    46b0:	80 f9       	bld	r24, 0
    46b2:	10 92 e9 00 	sts	0x00E9, r1	;  0x8000e9
    46b6:	06 c0       	rjmp	.+12     	;  0x46c4
    46b8:	80 91 99 02 	lds	r24, 0x0299	;  0x800299
    46bc:	90 91 9a 02 	lds	r25, 0x029A	;  0x80029a
    46c0:	91 11       	cpse	r25, r1
    46c2:	82 60       	ori	r24, 0x02	; 2
    46c4:	90 91 e8 00 	lds	r25, 0x00E8	;  0x8000e8
    46c8:	97 7f       	andi	r25, 0xF7	; 247
    46ca:	90 93 e8 00 	sts	0x00E8, r25	;  0x8000e8
    46ce:	80 93 f1 00 	sts	0x00F1, r24	;  0x8000f1
    46d2:	10 92 f1 00 	sts	0x00F1, r1	;  0x8000f1
    46d6:	80 91 e8 00 	lds	r24, 0x00E8	;  0x8000e8
    46da:	8e 77       	andi	r24, 0x7E	; 126
    46dc:	e5 c0       	rjmp	.+458    	;  0x48a8
    46de:	88 23       	and	r24, r24
    46e0:	09 f4       	brne	.+2      	;  0x46e4
    46e2:	d3 c0       	rjmp	.+422    	;  0x488a
    46e4:	82 30       	cpi	r24, 0x02	; 2
    46e6:	09 f0       	breq	.+2      	;  0x46ea
    46e8:	e3 c0       	rjmp	.+454    	;  0x48b0
    46ea:	80 91 9f 02 	lds	r24, 0x029F	;  0x80029f
    46ee:	81 11       	cpse	r24, r1
    46f0:	d6 c0       	rjmp	.+428    	;  0x489e
    46f2:	80 91 a1 02 	lds	r24, 0x02A1	;  0x8002a1
    46f6:	8f 70       	andi	r24, 0x0F	; 15
    46f8:	2f ef       	ldi	r18, 0xFF	; 255
    46fa:	28 0f       	add	r18, r24
    46fc:	26 30       	cpi	r18, 0x06	; 6
    46fe:	08 f0       	brcs	.+2      	;  0x4702
    4700:	d7 c0       	rjmp	.+430    	;  0x48b0
    4702:	80 93 e9 00 	sts	0x00E9, r24	;  0x8000e9
    4706:	20 91 eb 00 	lds	r18, 0x00EB	;  0x8000eb
    470a:	20 ff       	sbrs	r18, 0
    470c:	c8 c0       	rjmp	.+400    	;  0x489e
    470e:	93 30       	cpi	r25, 0x03	; 3
    4710:	31 f4       	brne	.+12     	;  0x471e
    4712:	80 91 eb 00 	lds	r24, 0x00EB	;  0x8000eb
    4716:	80 62       	ori	r24, 0x20	; 32
    4718:	80 93 eb 00 	sts	0x00EB, r24	;  0x8000eb
    471c:	c0 c0       	rjmp	.+384    	;  0x489e
    471e:	90 91 eb 00 	lds	r25, 0x00EB	;  0x8000eb
    4722:	90 61       	ori	r25, 0x10	; 16
    4724:	90 93 eb 00 	sts	0x00EB, r25	;  0x8000eb
    4728:	21 e0       	ldi	r18, 0x01	; 1
    472a:	30 e0       	ldi	r19, 0x00	; 0
    472c:	01 c0       	rjmp	.+2      	;  0x4730
    472e:	22 0f       	add	r18, r18
    4730:	8a 95       	dec	r24
    4732:	ea f7       	brpl	.-6      	;  0x472e
    4734:	20 93 ea 00 	sts	0x00EA, r18	;  0x8000ea
    4738:	10 92 ea 00 	sts	0x00EA, r1	;  0x8000ea
    473c:	80 91 eb 00 	lds	r24, 0x00EB	;  0x8000eb
    4740:	88 60       	ori	r24, 0x08	; 8
    4742:	ea cf       	rjmp	.-44     	;  0x4718
    4744:	81 11       	cpse	r24, r1
    4746:	b4 c0       	rjmp	.+360    	;  0x48b0
    4748:	10 91 9f 02 	lds	r17, 0x029F	;  0x80029f
    474c:	1f 77       	andi	r17, 0x7F	; 127
    474e:	80 91 e3 00 	lds	r24, 0x00E3	;  0x8000e3
    4752:	80 78       	andi	r24, 0x80	; 128
    4754:	81 2b       	or	r24, r17
    4756:	80 93 e3 00 	sts	0x00E3, r24	;  0x8000e3
    475a:	80 91 e8 00 	lds	r24, 0x00E8	;  0x8000e8
    475e:	87 7f       	andi	r24, 0xF7	; 247
    4760:	80 93 e8 00 	sts	0x00E8, r24	;  0x8000e8
    4764:	0e 94 3f 21 	call	0x427e	;  0x427e
    4768:	80 91 e8 00 	lds	r24, 0x00E8	;  0x8000e8
    476c:	80 ff       	sbrs	r24, 0
    476e:	fc cf       	rjmp	.-8      	;  0x4768
    4770:	80 91 e3 00 	lds	r24, 0x00E3	;  0x8000e3
    4774:	80 68       	ori	r24, 0x80	; 128
    4776:	80 93 e3 00 	sts	0x00E3, r24	;  0x8000e3
    477a:	82 e0       	ldi	r24, 0x02	; 2
    477c:	11 11       	cpse	r17, r1
    477e:	83 e0       	ldi	r24, 0x03	; 3
    4780:	80 93 9c 02 	sts	0x029C, r24	;  0x80029c
    4784:	95 c0       	rjmp	.+298    	;  0x48b0
    4786:	80 58       	subi	r24, 0x80	; 128
    4788:	82 30       	cpi	r24, 0x02	; 2
    478a:	08 f0       	brcs	.+2      	;  0x478e
    478c:	91 c0       	rjmp	.+290    	;  0x48b0
    478e:	80 91 9f 02 	lds	r24, 0x029F	;  0x80029f
    4792:	90 91 a0 02 	lds	r25, 0x02A0	;  0x8002a0
    4796:	8c 3d       	cpi	r24, 0xDC	; 220
    4798:	23 e0       	ldi	r18, 0x03	; 3
    479a:	92 07       	cpc	r25, r18
    479c:	a1 f5       	brne	.+104    	;  0x4806
    479e:	83 e0       	ldi	r24, 0x03	; 3
    47a0:	8a 83       	std	Y+2, r24	; 0x02
    47a2:	8a e2       	ldi	r24, 0x2A	; 42
    47a4:	89 83       	std	Y+1, r24	; 0x01
    47a6:	4f b7       	in	r20, 0x3f	; 63
    47a8:	f8 94       	cli
    47aa:	de 01       	movw	r26, r28
    47ac:	13 96       	adiw	r26, 0x03	; 3
    47ae:	20 e0       	ldi	r18, 0x00	; 0
    47b0:	3e e0       	ldi	r19, 0x0E	; 14
    47b2:	51 e2       	ldi	r21, 0x21	; 33
    47b4:	e3 2f       	mov	r30, r19
    47b6:	f0 e0       	ldi	r31, 0x00	; 0
    47b8:	50 93 57 00 	sts	0x0057, r21	;  0x800057
    47bc:	e4 91       	lpm	r30, Z
    47be:	20 ff       	sbrs	r18, 0
    47c0:	03 c0       	rjmp	.+6      	;  0x47c8
    47c2:	e2 95       	swap	r30
    47c4:	ef 70       	andi	r30, 0x0F	; 15
    47c6:	3f 5f       	subi	r19, 0xFF	; 255
    47c8:	ef 70       	andi	r30, 0x0F	; 15
    47ca:	8e 2f       	mov	r24, r30
    47cc:	90 e0       	ldi	r25, 0x00	; 0
    47ce:	ea 30       	cpi	r30, 0x0A	; 10
    47d0:	c0 f0       	brcs	.+48     	;  0x4802
    47d2:	c7 96       	adiw	r24, 0x37	; 55
    47d4:	8d 93       	st	X+, r24
    47d6:	9d 93       	st	X+, r25
    47d8:	2f 5f       	subi	r18, 0xFF	; 255
    47da:	24 31       	cpi	r18, 0x14	; 20
    47dc:	59 f7       	brne	.-42     	;  0x47b4
    47de:	4f bf       	out	0x3f, r20	; 63
    47e0:	80 91 e8 00 	lds	r24, 0x00E8	;  0x8000e8
    47e4:	87 7f       	andi	r24, 0xF7	; 247
    47e6:	80 93 e8 00 	sts	0x00E8, r24	;  0x8000e8
    47ea:	6a e2       	ldi	r22, 0x2A	; 42
    47ec:	70 e0       	ldi	r23, 0x00	; 0
    47ee:	ce 01       	movw	r24, r28
    47f0:	01 96       	adiw	r24, 0x01	; 1
    47f2:	0e 94 4e 20 	call	0x409c	;  0x409c
    47f6:	80 91 e8 00 	lds	r24, 0x00E8	;  0x8000e8
    47fa:	8b 77       	andi	r24, 0x7B	; 123
    47fc:	80 93 e8 00 	sts	0x00E8, r24	;  0x8000e8
    4800:	57 c0       	rjmp	.+174    	;  0x48b0
    4802:	c0 96       	adiw	r24, 0x30	; 48
    4804:	e7 cf       	rjmp	.-50     	;  0x47d4
    4806:	60 91 a1 02 	lds	r22, 0x02A1	;  0x8002a1
    480a:	70 91 a2 02 	lds	r23, 0x02A2	;  0x8002a2
    480e:	ae 01       	movw	r20, r28
    4810:	4f 5f       	subi	r20, 0xFF	; 255
    4812:	5f 4f       	sbci	r21, 0xFF	; 255
    4814:	0e 94 89 1f 	call	0x3f12	;  0x3f12
    4818:	bc 01       	movw	r22, r24
    481a:	89 2b       	or	r24, r25
    481c:	09 f4       	brne	.+2      	;  0x4820
    481e:	48 c0       	rjmp	.+144    	;  0x48b0
    4820:	90 91 e8 00 	lds	r25, 0x00E8	;  0x8000e8
    4824:	97 7f       	andi	r25, 0xF7	; 247
    4826:	90 93 e8 00 	sts	0x00E8, r25	;  0x8000e8
    482a:	89 81       	ldd	r24, Y+1	; 0x01
    482c:	9a 81       	ldd	r25, Y+2	; 0x02
    482e:	0e 94 ac 20 	call	0x4158	;  0x4158
    4832:	e1 cf       	rjmp	.-62     	;  0x47f6
    4834:	80 38       	cpi	r24, 0x80	; 128
    4836:	e1 f5       	brne	.+120    	;  0x48b0
    4838:	80 91 e8 00 	lds	r24, 0x00E8	;  0x8000e8
    483c:	87 7f       	andi	r24, 0xF7	; 247
    483e:	80 93 e8 00 	sts	0x00E8, r24	;  0x8000e8
    4842:	80 91 98 02 	lds	r24, 0x0298	;  0x800298
    4846:	80 93 f1 00 	sts	0x00F1, r24	;  0x8000f1
    484a:	45 cf       	rjmp	.-374    	;  0x46d6
    484c:	81 11       	cpse	r24, r1
    484e:	30 c0       	rjmp	.+96     	;  0x48b0
    4850:	90 91 9f 02 	lds	r25, 0x029F	;  0x80029f
    4854:	92 30       	cpi	r25, 0x02	; 2
    4856:	60 f5       	brcc	.+88     	;  0x48b0
    4858:	80 91 e8 00 	lds	r24, 0x00E8	;  0x8000e8
    485c:	87 7f       	andi	r24, 0xF7	; 247
    485e:	80 93 e8 00 	sts	0x00E8, r24	;  0x8000e8
    4862:	90 93 98 02 	sts	0x0298, r25	;  0x800298
    4866:	0e 94 3f 21 	call	0x427e	;  0x427e
    486a:	80 91 98 02 	lds	r24, 0x0298	;  0x800298
    486e:	88 23       	and	r24, r24
    4870:	11 f0       	breq	.+4      	;  0x4876
    4872:	84 e0       	ldi	r24, 0x04	; 4
    4874:	05 c0       	rjmp	.+10     	;  0x4880
    4876:	80 91 e3 00 	lds	r24, 0x00E3	;  0x8000e3
    487a:	87 fd       	sbrc	r24, 7
    487c:	fa cf       	rjmp	.-12     	;  0x4872
    487e:	81 e0       	ldi	r24, 0x01	; 1
    4880:	80 93 9c 02 	sts	0x029C, r24	;  0x80029c
    4884:	0e 94 73 1e 	call	0x3ce6	;  0x3ce6
    4888:	13 c0       	rjmp	.+38     	;  0x48b0
    488a:	80 91 9f 02 	lds	r24, 0x029F	;  0x80029f
    488e:	81 30       	cpi	r24, 0x01	; 1
    4890:	79 f4       	brne	.+30     	;  0x48b0
    4892:	81 e0       	ldi	r24, 0x01	; 1
    4894:	93 30       	cpi	r25, 0x03	; 3
    4896:	09 f0       	breq	.+2      	;  0x489a
    4898:	80 e0       	ldi	r24, 0x00	; 0
    489a:	80 93 9a 02 	sts	0x029A, r24	;  0x80029a
    489e:	10 92 e9 00 	sts	0x00E9, r1	;  0x8000e9
    48a2:	80 91 e8 00 	lds	r24, 0x00E8	;  0x8000e8
    48a6:	87 7f       	andi	r24, 0xF7	; 247
    48a8:	80 93 e8 00 	sts	0x00E8, r24	;  0x8000e8
    48ac:	0e 94 3f 21 	call	0x427e	;  0x427e
    48b0:	80 91 e8 00 	lds	r24, 0x00E8	;  0x8000e8
    48b4:	83 ff       	sbrs	r24, 3
    48b6:	0a c0       	rjmp	.+20     	;  0x48cc
    48b8:	80 91 e8 00 	lds	r24, 0x00E8	;  0x8000e8
    48bc:	87 7f       	andi	r24, 0xF7	; 247
    48be:	80 93 e8 00 	sts	0x00E8, r24	;  0x8000e8
    48c2:	80 91 eb 00 	lds	r24, 0x00EB	;  0x8000eb
    48c6:	80 62       	ori	r24, 0x20	; 32
    48c8:	80 93 eb 00 	sts	0x00EB, r24	;  0x8000eb
    48cc:	aa 96       	adiw	r28, 0x2a	; 42
    48ce:	e3 e0       	ldi	r30, 0x03	; 3
    48d0:	0c 94 dd 24 	jmp	0x49ba	;  0x49ba
    48d4:	08 95       	ret
    48d6:	cf 93       	push	r28
    48d8:	80 91 9c 02 	lds	r24, 0x029C	;  0x80029c
    48dc:	88 23       	and	r24, r24
    48de:	a1 f0       	breq	.+40     	;  0x4908
    48e0:	c0 91 e9 00 	lds	r28, 0x00E9	;  0x8000e9
    48e4:	cf 70       	andi	r28, 0x0F	; 15
    48e6:	90 91 ec 00 	lds	r25, 0x00EC	;  0x8000ec
    48ea:	89 2f       	mov	r24, r25
    48ec:	81 70       	andi	r24, 0x01	; 1
    48ee:	90 fd       	sbrc	r25, 0
    48f0:	80 e8       	ldi	r24, 0x80	; 128
    48f2:	c8 2b       	or	r28, r24
    48f4:	10 92 e9 00 	sts	0x00E9, r1	;  0x8000e9
    48f8:	80 91 e8 00 	lds	r24, 0x00E8	;  0x8000e8
    48fc:	83 fd       	sbrc	r24, 3
    48fe:	0e 94 23 23 	call	0x4646	;  0x4646
    4902:	cf 70       	andi	r28, 0x0F	; 15
    4904:	c0 93 e9 00 	sts	0x00E9, r28	;  0x8000e9
    4908:	cf 91       	pop	r28
    490a:	08 95       	ret
    490c:	0e 94 8f 21 	call	0x431e	;  0x431e
    4910:	10 92 9c 02 	sts	0x029C, r1	;  0x80029c
    4914:	08 95       	ret
    4916:	e8 ed       	ldi	r30, 0xD8	; 216
    4918:	f0 e0       	ldi	r31, 0x00	; 0
    491a:	80 81       	ld	r24, Z
    491c:	80 61       	ori	r24, 0x10	; 16
    491e:	80 83       	st	Z, r24
    4920:	8a e1       	ldi	r24, 0x1A	; 26
    4922:	8a 95       	dec	r24
    4924:	f1 f7       	brne	.-4      	;  0x4922
    4926:	00 c0       	rjmp	.+0      	;  0x4928
    4928:	80 91 d9 00 	lds	r24, 0x00D9	;  0x8000d9
    492c:	81 70       	andi	r24, 0x01	; 1
    492e:	08 95       	ret
    4930:	97 fb       	bst	r25, 7
    4932:	07 2e       	mov	r0, r23
    4934:	16 f4       	brtc	.+4      	;  0x493a
    4936:	00 94       	com	r0
    4938:	07 d0       	rcall	.+14     	;  0x4948
    493a:	77 fd       	sbrc	r23, 7
    493c:	09 d0       	rcall	.+18     	;  0x4950
    493e:	0e 94 e9 24 	call	0x49d2	;  0x49d2
    4942:	07 fc       	sbrc	r0, 7
    4944:	05 d0       	rcall	.+10     	;  0x4950
    4946:	3e f4       	brtc	.+14     	;  0x4956
    4948:	90 95       	com	r25
    494a:	81 95       	neg	r24
    494c:	9f 4f       	sbci	r25, 0xFF	; 255
    494e:	08 95       	ret
    4950:	70 95       	com	r23
    4952:	61 95       	neg	r22
    4954:	7f 4f       	sbci	r23, 0xFF	; 255
    4956:	08 95       	ret
    4958:	ee 0f       	add	r30, r30
    495a:	ff 1f       	adc	r31, r31
    495c:	05 90       	lpm	r0, Z+
    495e:	f4 91       	lpm	r31, Z
    4960:	e0 2d       	mov	r30, r0
    4962:	09 94       	ijmp
    4964:	2f 92       	push	r2
    4966:	3f 92       	push	r3
    4968:	4f 92       	push	r4
    496a:	5f 92       	push	r5
    496c:	6f 92       	push	r6
    496e:	7f 92       	push	r7
    4970:	8f 92       	push	r8
    4972:	9f 92       	push	r9
    4974:	af 92       	push	r10
    4976:	bf 92       	push	r11
    4978:	cf 92       	push	r12
    497a:	df 92       	push	r13
    497c:	ef 92       	push	r14
    497e:	ff 92       	push	r15
    4980:	0f 93       	push	r16
    4982:	1f 93       	push	r17
    4984:	cf 93       	push	r28
    4986:	df 93       	push	r29
    4988:	cd b7       	in	r28, 0x3d	; 61
    498a:	de b7       	in	r29, 0x3e	; 62
    498c:	ca 1b       	sub	r28, r26
    498e:	db 0b       	sbc	r29, r27
    4990:	0f b6       	in	r0, 0x3f	; 63
    4992:	f8 94       	cli
    4994:	de bf       	out	0x3e, r29	; 62
    4996:	0f be       	out	0x3f, r0	; 63
    4998:	cd bf       	out	0x3d, r28	; 61
    499a:	09 94       	ijmp
    499c:	2a 88       	ldd	r2, Y+18	; 0x12
    499e:	39 88       	ldd	r3, Y+17	; 0x11
    49a0:	48 88       	ldd	r4, Y+16	; 0x10
    49a2:	5f 84       	ldd	r5, Y+15	; 0x0f
    49a4:	6e 84       	ldd	r6, Y+14	; 0x0e
    49a6:	7d 84       	ldd	r7, Y+13	; 0x0d
    49a8:	8c 84       	ldd	r8, Y+12	; 0x0c
    49aa:	9b 84       	ldd	r9, Y+11	; 0x0b
    49ac:	aa 84       	ldd	r10, Y+10	; 0x0a
    49ae:	b9 84       	ldd	r11, Y+9	; 0x09
    49b0:	c8 84       	ldd	r12, Y+8	; 0x08
    49b2:	df 80       	ldd	r13, Y+7	; 0x07
    49b4:	ee 80       	ldd	r14, Y+6	; 0x06
    49b6:	fd 80       	ldd	r15, Y+5	; 0x05
    49b8:	0c 81       	ldd	r16, Y+4	; 0x04
    49ba:	1b 81       	ldd	r17, Y+3	; 0x03
    49bc:	aa 81       	ldd	r26, Y+2	; 0x02
    49be:	b9 81       	ldd	r27, Y+1	; 0x01
    49c0:	ce 0f       	add	r28, r30
    49c2:	d1 1d       	adc	r29, r1
    49c4:	0f b6       	in	r0, 0x3f	; 63
    49c6:	f8 94       	cli
    49c8:	de bf       	out	0x3e, r29	; 62
    49ca:	0f be       	out	0x3f, r0	; 63
    49cc:	cd bf       	out	0x3d, r28	; 61
    49ce:	ed 01       	movw	r28, r26
    49d0:	08 95       	ret
    49d2:	aa 1b       	sub	r26, r26
    49d4:	bb 1b       	sub	r27, r27
    49d6:	51 e1       	ldi	r21, 0x11	; 17
    49d8:	07 c0       	rjmp	.+14     	;  0x49e8
    49da:	aa 1f       	adc	r26, r26
    49dc:	bb 1f       	adc	r27, r27
    49de:	a6 17       	cp	r26, r22
    49e0:	b7 07       	cpc	r27, r23
    49e2:	10 f0       	brcs	.+4      	;  0x49e8
    49e4:	a6 1b       	sub	r26, r22
    49e6:	b7 0b       	sbc	r27, r23
    49e8:	88 1f       	adc	r24, r24
    49ea:	99 1f       	adc	r25, r25
    49ec:	5a 95       	dec	r21
    49ee:	a9 f7       	brne	.-22     	;  0x49da
    49f0:	80 95       	com	r24
    49f2:	90 95       	com	r25
    49f4:	bc 01       	movw	r22, r24
    49f6:	cd 01       	movw	r24, r26
    49f8:	08 95       	ret
    49fa:	fb 01       	movw	r30, r22
    49fc:	dc 01       	movw	r26, r24
    49fe:	04 c0       	rjmp	.+8      	;  0x4a08
    4a00:	8d 91       	ld	r24, X+
    4a02:	01 90       	ld	r0, Z+
    4a04:	80 19       	sub	r24, r0
    4a06:	21 f4       	brne	.+8      	;  0x4a10
    4a08:	41 50       	subi	r20, 0x01	; 1
    4a0a:	50 40       	sbci	r21, 0x00	; 0
    4a0c:	c8 f7       	brcc	.-14     	;  0x4a00
    4a0e:	88 1b       	sub	r24, r24
    4a10:	99 0b       	sbc	r25, r25
    4a12:	08 95       	ret
    4a14:	fb 01       	movw	r30, r22
    4a16:	dc 01       	movw	r26, r24
    4a18:	02 c0       	rjmp	.+4      	;  0x4a1e
    4a1a:	01 90       	ld	r0, Z+
    4a1c:	0d 92       	st	X+, r0
    4a1e:	41 50       	subi	r20, 0x01	; 1
    4a20:	50 40       	sbci	r21, 0x00	; 0
    4a22:	d8 f7       	brcc	.-10     	;  0x4a1a
    4a24:	08 95       	ret
    4a26:	f9 99       	sbic	0x1f, 1	; 31
    4a28:	fe cf       	rjmp	.-4      	;  0x4a26
    4a2a:	92 bd       	out	0x22, r25	; 34
    4a2c:	81 bd       	out	0x21, r24	; 33
    4a2e:	f8 9a       	sbi	0x1f, 0	; 31
    4a30:	99 27       	eor	r25, r25
    4a32:	80 b5       	in	r24, 0x20	; 32
    4a34:	08 95       	ret
    4a36:	a8 e1       	ldi	r26, 0x18	; 24
    4a38:	b0 e0       	ldi	r27, 0x00	; 0
    4a3a:	42 e0       	ldi	r20, 0x02	; 2
    4a3c:	50 e0       	ldi	r21, 0x00	; 0
    4a3e:	0c 94 57 25 	jmp	0x4aae	;  0x4aae
    4a42:	dc 01       	movw	r26, r24
    4a44:	a4 0f       	add	r26, r20
    4a46:	b5 1f       	adc	r27, r21
    4a48:	41 50       	subi	r20, 0x01	; 1
    4a4a:	50 40       	sbci	r21, 0x00	; 0
    4a4c:	48 f0       	brcs	.+18     	;  0x4a60
    4a4e:	cb 01       	movw	r24, r22
    4a50:	84 0f       	add	r24, r20
    4a52:	95 1f       	adc	r25, r21
    4a54:	2e 91       	ld	r18, -X
    4a56:	0e 94 32 25 	call	0x4a64	;  0x4a64
    4a5a:	41 50       	subi	r20, 0x01	; 1
    4a5c:	50 40       	sbci	r21, 0x00	; 0
    4a5e:	d0 f7       	brcc	.-12     	;  0x4a54
    4a60:	08 95       	ret
    4a62:	26 2f       	mov	r18, r22
    4a64:	f9 99       	sbic	0x1f, 1	; 31
    4a66:	fe cf       	rjmp	.-4      	;  0x4a64
    4a68:	92 bd       	out	0x22, r25	; 34
    4a6a:	81 bd       	out	0x21, r24	; 33
    4a6c:	f8 9a       	sbi	0x1f, 0	; 31
    4a6e:	01 97       	sbiw	r24, 0x01	; 1
    4a70:	00 b4       	in	r0, 0x20	; 32
    4a72:	02 16       	cp	r0, r18
    4a74:	39 f0       	breq	.+14     	;  0x4a84
    4a76:	1f ba       	out	0x1f, r1	; 31
    4a78:	20 bd       	out	0x20, r18	; 32
    4a7a:	0f b6       	in	r0, 0x3f	; 63
    4a7c:	f8 94       	cli
    4a7e:	fa 9a       	sbi	0x1f, 2	; 31
    4a80:	f9 9a       	sbi	0x1f, 1	; 31
    4a82:	0f be       	out	0x3f, r0	; 63
    4a84:	08 95       	ret
    4a86:	03 96       	adiw	r24, 0x03	; 3
    4a88:	27 2f       	mov	r18, r23
    4a8a:	0e 94 32 25 	call	0x4a64	;  0x4a64
    4a8e:	0e 94 31 25 	call	0x4a62	;  0x4a62
    4a92:	25 2f       	mov	r18, r21
    4a94:	0e 94 32 25 	call	0x4a64	;  0x4a64
    4a98:	24 2f       	mov	r18, r20
    4a9a:	0c 94 32 25 	jmp	0x4a64	;  0x4a64
    4a9e:	01 96       	adiw	r24, 0x01	; 1
    4aa0:	27 2f       	mov	r18, r23
    4aa2:	0e 94 32 25 	call	0x4a64	;  0x4a64
    4aa6:	0c 94 31 25 	jmp	0x4a62	;  0x4a62
    4aaa:	dc 01       	movw	r26, r24
    4aac:	cb 01       	movw	r24, r22
    4aae:	fc 01       	movw	r30, r24
    4ab0:	f9 99       	sbic	0x1f, 1	; 31
    4ab2:	fe cf       	rjmp	.-4      	;  0x4ab0
    4ab4:	06 c0       	rjmp	.+12     	;  0x4ac2
    4ab6:	f2 bd       	out	0x22, r31	; 34
    4ab8:	e1 bd       	out	0x21, r30	; 33
    4aba:	f8 9a       	sbi	0x1f, 0	; 31
    4abc:	31 96       	adiw	r30, 0x01	; 1
    4abe:	00 b4       	in	r0, 0x20	; 32
    4ac0:	0d 92       	st	X+, r0
    4ac2:	41 50       	subi	r20, 0x01	; 1
    4ac4:	50 40       	sbci	r21, 0x00	; 0
    4ac6:	b8 f7       	brcc	.-18     	;  0x4ab6
    4ac8:	08 95       	ret
    4aca:	f8 94       	cli
    4acc:	ff cf       	rjmp	.-2      	;  0x4acc
    4ace:	e8 04       	cpc	r14, r8
    4ad0:	e8 04       	cpc	r14, r8
    4ad2:	38 05       	cpc	r19, r8
    4ad4:	38 05       	cpc	r19, r8
    4ad6:	9d 05       	cpc	r25, r13
    4ad8:	b9 05       	cpc	r27, r9
    4ada:	17 05       	cpc	r17, r7
    4adc:	17 05       	cpc	r17, r7
    4ade:	be 05       	cpc	r27, r14
    4ae0:	2f 06       	cpc	r2, r31
    4ae2:	3e 06       	cpc	r3, r30
    4ae4:	3e 06       	cpc	r3, r30
    4ae6:	7d 17       	cp	r23, r29
    4ae8:	f1 17       	cp	r31, r17
    4aea:	85 17       	cp	r24, r21
    4aec:	4f 17       	cp	r20, r31
    4aee:	53 17       	cp	r21, r19
    4af0:	89 17       	cp	r24, r25
    4af2:	57 17       	cp	r21, r23
    4af4:	8d 17       	cp	r24, r29
    4af6:	99 17       	cp	r25, r25
    4af8:	63 17       	cp	r22, r19
    4afa:	ea 17       	cp	r30, r26
    4afc:	67 17       	cp	r22, r23
    4afe:	9d 17       	cp	r25, r29
    4b00:	6b 17       	cp	r22, r27
    4b02:	a1 17       	cp	r26, r17
    4b04:	c9 17       	cp	r28, r25
    4b06:	6f 17       	cp	r22, r31
    4b08:	a5 17       	cp	r26, r21
    4b0a:	d0 17       	cp	r29, r16
    4b0c:	75 17       	cp	r23, r21
    4b0e:	ab 17       	cp	r26, r27
    4b10:	b3 17       	cp	r27, r19
    4b12:	5b 17       	cp	r21, r27
    4b14:	91 17       	cp	r25, r17
    4b16:	5f 17       	cp	r21, r31
    4b18:	95 17       	cp	r25, r21
    4b1a:	79 17       	cp	r23, r25
    4b1c:	af 17       	cp	r26, r31
    4b1e:	bf 17       	cp	r27, r31
    4b20:	d9 17       	cp	r29, r25
    4b22:	e8 17       	cp	r30, r24
    4b24:	49 17       	cp	r20, r25
    4b26:	81 17       	cp	r24, r17
    4b28:	f8 17       	cp	r31, r24
    4b2a:	f8 19       	sub	r31, r8
    4b2c:	fe 19       	sub	r31, r14
    4b2e:	e7 19       	sub	r30, r7
    4b30:	f2 19       	sub	r31, r2
    4b32:	04 1a       	sub	r0, r20
    4b34:	0a 1a       	sub	r0, r26
    4b36:	10 1a       	sub	r1, r16
    4b38:	47 23       	and	r20, r23
    4b3a:	6f 23       	and	r22, r31
    4b3c:	58 24       	eor	r5, r8
    4b3e:	6f 23       	and	r22, r31
    4b40:	58 24       	eor	r5, r8
    4b42:	a2 23       	and	r26, r18
    4b44:	c3 23       	and	r28, r19
    4b46:	58 24       	eor	r5, r8
    4b48:	1a 24       	eor	r1, r10
    4b4a:	26 24       	eor	r2, r6
    4b4c:	16 02       	muls	r17, r22
    4b4e:	01 00       	.word	0x0001	; ????
    4b50:	00 00       	nop
    4b52:	01 00       	.word	0x0001	; ????
    4b54:	00 00       	nop
    4b56:	00 00       	nop
    4b58:	00 00       	nop
    4b5a:	04 01       	movw	r0, r8
    4b5c:	00 00       	nop
    4b5e:	00 04       	cpc	r0, r0
    4b60:	05 00       	.word	0x0005	; ????
    4b62:	00 00       	nop
    4b64:	00 00       	nop
    4b66:	00 28       	or	r0, r0
    4b68:	08 50       	subi	r16, 0x08	; 8
    4b6a:	01 1e       	adc	r0, r17
    4b6c:	0a 14       	cp	r0, r10
    4b6e:	01 02       	muls	r16, r17
    4b70:	1e 37       	cpi	r17, 0x7E	; 126
    4b72:	1e 30       	cpi	r17, 0x0E	; 14
    4b74:	1e 29       	or	r17, r14
    4b76:	1e 01       	movw	r2, r28
    4b78:	e2 00       	.word	0x00e2	; ????
    4b7a:	e9 00       	.word	0x00e9	; ????
    4b7c:	ea 00       	.word	0x00ea	; ????
    4b7e:	b5 00       	.word	0x00b5	; ????
    4b80:	b6 00       	.word	0x00b6	; ????
    4b82:	b7 00       	.word	0x00b7	; ????
    4b84:	cd 00       	.word	0x00cd	; ????
    4b86:	83 01       	movw	r16, r6
    4b88:	cc 00       	.word	0x00cc	; ????
    4b8a:	8a 01       	movw	r16, r20
    4b8c:	92 01       	movw	r18, r4
    4b8e:	94 01       	movw	r18, r8
    4b90:	21 02       	muls	r18, r17
    4b92:	23 02       	muls	r18, r19
    4b94:	24 02       	muls	r18, r20
    4b96:	25 02       	muls	r18, r21
    4b98:	26 02       	muls	r18, r22
    4b9a:	27 02       	muls	r18, r23
    4b9c:	2a 02       	muls	r18, r26
    4b9e:	b3 00       	.word	0x00b3	; ????
    4ba0:	b4 00       	.word	0x00b4	; ????
    4ba2:	6f 00       	.word	0x006f	; ????
    4ba4:	70 00       	.word	0x0070	; ????
    4ba6:	9f 01       	movw	r18, r30
    4ba8:	cb 01       	movw	r24, r22
    4baa:	9f 02       	muls	r25, r31
    4bac:	a0 02       	muls	r26, r16
    4bae:	81 82       	std	Z+1, r8	; 0x01
    4bb0:	83 e2       	ldi	r24, 0x23	; 35
    4bb2:	00 e9       	ldi	r16, 0x90	; 144
    4bb4:	00 ea       	ldi	r16, 0xA0	; 160
    4bb6:	00 b5       	in	r16, 0x20	; 32
    4bb8:	00 b6       	in	r0, 0x30	; 48
    4bba:	00 b7       	in	r16, 0x30	; 48
    4bbc:	00 cd       	rjmp	.-1536   	;  0x45be
    4bbe:	00 83       	st	Z, r16
    4bc0:	01 cc       	rjmp	.-2046   	;  0x43c4
    4bc2:	00 8a       	std	Z+16, r0	; 0x10
    4bc4:	01 92       	st	Z+, r0
    4bc6:	01 94       	neg	r0
    4bc8:	01 21       	and	r16, r1
    4bca:	02 23       	and	r16, r18
    4bcc:	02 24       	eor	r0, r2
    4bce:	02 25       	eor	r16, r2
    4bd0:	02 26       	eor	r0, r18
    4bd2:	02 27       	eor	r16, r18
    4bd4:	02 2a       	or	r0, r18
    4bd6:	02 b3       	in	r16, 0x12	; 18
    4bd8:	00 b4       	in	r0, 0x20	; 32
    4bda:	00 6f       	ori	r16, 0xF0	; 240
    4bdc:	00 70       	andi	r16, 0x00	; 0
    4bde:	00 9f       	mul	r16, r16
    4be0:	01 cb       	rjmp	.-2558   	;  0x41e4
    4be2:	01 9f       	mul	r16, r17
    4be4:	02 a0       	ldd	r0, Z+34	; 0x22
    4be6:	02 81       	ldd	r16, Z+2	; 0x02
    4be8:	82 83       	std	Z+2, r24	; 0x02
    4bea:	f4 93       	xch	Z, r31
    4bec:	92 91       	ld	r25, -Z
    4bee:	94 32       	cpi	r25, 0x24	; 36
    4bf0:	36 34       	cpi	r19, 0x46	; 70
    4bf2:	35 3b       	cpi	r19, 0xB5	; 181
    4bf4:	02 00       	.word	0x0002	; ????
